(dp0
S'Pm'
p1
(lp2
F100.00000762939453
aF100.00000762939453
aF100.00000762939453
aF100.00000762939453
aF100.00000762939453
aF100.00000762939453
aF100.00000762939453
aF100.00000762939453
aF100.00000762939453
aF100.00000762939453
aF100.00000762939453
aF100.00000762939453
aF100.00000762939453
aF100.00000762939453
aF100.00000762939453
aF100.00000762939453
aF100.00000762939453
aF100.00000762939453
aF100.00000762939453
aF100.00000762939453
aF100.00000762939453
asS't'
p3
(lp4
F0.0
aF1.0
aF2.0
aF3.0
aF4.0
aF5.0
aF6.0
aF7.0
aF8.0
aF9.0
aF10.0
aF11.0
aF12.0
aF13.0
aF14.0
aF15.0
aF16.0
aF17.0
aF18.0
aF19.0
aF20.0
asS'Qgen'
p5
(lp6
F0.0
aF0.0
aF0.0
aF0.0
aF0.0
aF0.0
aF0.0
aF0.0
aF0.0
aF0.0
aF0.0
aF0.0
aF0.0
aF0.0
aF0.0
aF0.0
aF0.0
aF0.0
aF0.0
aF0.0
aF0.0
asS'deltaF'
p7
(lp8
F0.0
aF0.0
aF0.0
aF-0.013513513513513487
aF-0.013698627524179941
aF-0.0138915291874947
aF-0.014092775742700847
aF-0.01430298486742998
aF-0.014522840053871833
aF-0.014753099891559263
aF-0.0149946089996702
aF-0.015248310966341605
aF-0.015515263744862784
aF3.0129739814199752e-09
aF6.0259479628399504e-09
aF0.0
aF9.0389218332376231e-09
aF0.0
aF6.0259478518176479e-09
aF9.0389217222153206e-09
aF0.0
asS'Pload'
p9
(lp10
F100.0
aF100.0
aF120.0
aF120.0
aF120.0
aF120.0
aF120.0
aF120.0
aF120.0
aF120.0
aF120.0
aF120.0
aF100.0
aF100.0
aF100.0
aF100.0
aF100.0
aF100.0
aF100.0
aF100.0
aF100.0
asS'Qload'
p11
(lp12
F0.0
aF0.0
aF0.0
aF0.0
aF0.0
aF0.0
aF0.0
aF0.0
aF0.0
aF0.0
aF0.0
aF0.0
aF0.0
aF0.0
aF0.0
aF0.0
aF0.0
aF0.0
aF0.0
aF0.0
aF0.0
asS'Pacc'
p13
(lp14
F0.0
aF0.0
aF-20.0
aF-19.999996185302734
aF-19.999996185302734
aF-19.999996185302734
aF-19.999996185302734
aF-19.999996185302734
aF-19.999996185302734
aF-19.999996185302734
aF-19.999996185302734
aF-19.999996185302734
aF3.814697265625e-06
aF7.62939453125e-06
aF0.0
aF1.1444091796875e-05
aF0.0
aF7.62939453125e-06
aF1.1444091796875e-05
aF0.0
aF7.62939453125e-06
asS'f'
p15
(lp16
F1.0
aF1.0
aF1.0
aF0.98648648648648651
aF0.97278785896230657
aF0.95889632977481187
aF0.94480355403211103
aF0.93050056916468105
aF0.91597772911080921
aF0.90122462921924995
aF0.88623002021957975
aF0.87098170925323815
aF0.85546644550837536
aF0.85546644852134934
aF0.85546645454729731
aF0.85546645454729731
aF0.85546646358621914
aF0.85546646358621914
aF0.85546646961216699
aF0.85546647865108871
aF0.85546647865108871
asS'Hsys'
p17
F740.0
sS'Pe'
p18
(lp19
F100.00000762939453
aF100.00000762939453
aF120.00000381469727
aF120.00000381469727
aF120.00000381469727
aF120.00000381469727
aF120.00000381469727
aF120.00000381469727
aF120.00000381469727
aF120.00000381469727
aF120.00000381469727
aF120.00000381469727
aF100.0
aF100.00000762939453
aF99.999996185302734
aF100.00000762939453
aF100.0
aF99.999996185302734
aF100.00000762939453
aF100.0
aF99.999996185302734
asS'Sbase'
p20
F100.0
sS'A1'
p21
(dp22
S'x2'
p23
(dp24
S'Vm'
p25
(lp26
F0.99849432706832886
aF0.99849432706832886
aF0.99782818555831909
aF0.99782812595367432
aF0.99782812595367432
aF0.99782812595367432
aF0.99782812595367432
aF0.99782812595367432
aF0.99782812595367432
aF0.99782812595367432
aF0.99782812595367432
aF0.99782812595367432
aF0.99849426746368408
aF0.99849432706832886
aF0.99849432706832886
aF0.99849432706832886
aF0.99849432706832886
aF0.99849432706832886
aF0.99849432706832886
aF0.99849432706832886
aF0.99849432706832886
asS'BusName'
p27
S'2'
p28
sS'BusNum'
p29
I2
sS'Va'
p30
(lp31
F-0.72395294904708862
aF-0.72395294904708862
aF-0.73402351140975952
aF-0.73402351140975952
aF-0.73402351140975952
aF-0.73402351140975952
aF-0.73402351140975952
aF-0.73402351140975952
aF-0.73402351140975952
aF-0.73402351140975952
aF-0.73402351140975952
aF-0.73402351140975952
aF-0.72395294904708862
aF-0.72395294904708862
aF-0.72395294904708862
aF-0.72395294904708862
aF-0.72395294904708862
aF-0.72395294904708862
aF-0.72395294904708862
aF-0.72395294904708862
aF-0.72395294904708862
assS'Nload'
p32
I2
sS'Ngen'
p33
I2
sS'S11'
p34
(dp35
g30
(lp36
F-0.67385661602020264
aF-0.67385661602020264
aF-0.67385661602020264
aF-0.67385661602020264
aF-0.67385661602020264
aF-0.67385661602020264
aF-0.67385661602020264
aF-0.67385661602020264
aF-0.67385661602020264
aF-0.67385661602020264
aF-0.67385661602020264
aF-0.67385661602020264
aF-0.67385661602020264
aF-0.67385661602020264
aF-0.67385661602020264
aF-0.67385661602020264
aF-0.67385661602020264
aF-0.67385661602020264
aF-0.67385661602020264
aF-0.67385661602020264
aF-0.67385661602020264
asg25
(lp37
F1.0
aF1.0
aF1.0
aF1.0
aF1.0
aF1.0
aF1.0
aF1.0
aF1.0
aF1.0
aF1.0
aF1.0
aF1.0
aF1.0
aF1.0
aF1.0
aF1.0
aF1.0
aF1.0
aF1.0
aF1.0
asS'S0'
p38
(dp39
S'Hpu'
p40
F3.7000000000000002
sS'Pe'
p41
(lp42
F50.000007629394531
aF50.000007629394531
aF60.000003814697266
aF60.000003814697266
aF60.000003814697266
aF60.000003814697266
aF60.000003814697266
aF60.000003814697266
aF60.000003814697266
aF60.000003814697266
aF60.000003814697266
aF60.000003814697266
aF50.0
aF50.000007629394531
aF49.999992370605469
aF50.000007629394531
aF49.999992370605469
aF49.999992370605469
aF50.000007629394531
aF49.999992370605469
aF49.999992370605469
asS'Q'
p43
(lp44
F2.7583422660827637
aF2.7583422660827637
aF3.9773690700531006
aF3.9774239063262939
aF3.9774239063262939
aF3.9774239063262939
aF3.9774239063262939
aF3.9774239063262939
aF3.9774239063262939
aF3.9774239063262939
aF3.9774239063262939
aF3.9774239063262939
aF2.7583756446838379
aF2.7583422660827637
aF2.7583456039428711
aF2.7583422660827637
aF2.7583456039428711
aF2.7583456039428711
aF2.7583422660827637
aF2.7583456039428711
aF2.7583456039428711
asS'Pm'
p45
(lp46
F50.000007629394531
aF50.000007629394531
aF50.000007629394531
aF50.000007629394531
aF50.000007629394531
aF50.000007629394531
aF50.000007629394531
aF50.000007629394531
aF50.000007629394531
aF50.000007629394531
aF50.000007629394531
aF50.000007629394531
aF50.000007629394531
aF50.000007629394531
aF50.000007629394531
aF50.000007629394531
aF50.000007629394531
aF50.000007629394531
aF50.000007629394531
aF50.000007629394531
aF50.000007629394531
asS'St'
p47
(lp48
I1
aI1
aI1
aI1
aI1
aI1
aI1
aI1
aI1
aI1
aI1
aI1
aI1
aI1
aI1
aI1
aI1
aI1
aI1
aI1
aI1
asS'Pe_error'
p49
(lp50
F0.0
aF0.0
aF-3.814697265625e-06
aF1.9073486328125e-06
aF0.0
aF0.0
aF0.0
aF0.0
aF0.0
aF0.0
aF0.0
aF0.0
aF-3.814697265625e-06
aF9.5367431640625e-06
aF-1.9073486328125e-05
aF2.09808349609375e-05
aF-2.09808349609375e-05
aF3.814697265625e-06
aF1.71661376953125e-05
aF-2.09808349609375e-05
aF3.814697265625e-06
asS'Pe_calc'
p51
(lp52
F50.000007629394531
aF50.000007629394531
aF60.000007629394531
aF60.000001907348633
aF60.000003814697266
aF60.000003814697266
aF60.000003814697266
aF60.000003814697266
aF60.000003814697266
aF60.000003814697266
aF60.000003814697266
aF60.000003814697266
aF50.000003814697266
aF49.999998092651367
aF50.000011444091797
aF49.99998664855957
aF50.00001335144043
aF49.999988555908203
aF49.999990463256836
aF50.00001335144043
aF49.999988555908203
asS'Slack'
p53
I1
sS'Mbase'
p54
F100.0
ssg29
I11
sg27
S'11'
p55
ssS'AreaNum'
p56
I1
sS'G21'
p57
(dp58
g30
(lp59
F-0.67385661602020264
aF-0.67385661602020264
aF-0.67385661602020264
aF-0.67385661602020264
aF-0.67385661602020264
aF-0.67385661602020264
aF-0.67385661602020264
aF-0.67385661602020264
aF-0.67385661602020264
aF-0.67385661602020264
aF-0.67385661602020264
aF-0.67385661602020264
aF-0.67385661602020264
aF-0.67385661602020264
aF-0.67385661602020264
aF-0.67385661602020264
aF-0.67385661602020264
aF-0.67385661602020264
aF-0.67385661602020264
aF-0.67385661602020264
aF-0.67385661602020264
asg25
(lp60
F1.0
aF1.0
aF1.0
aF1.0
aF1.0
aF1.0
aF1.0
aF1.0
aF1.0
aF1.0
aF1.0
aF1.0
aF1.0
aF1.0
aF1.0
aF1.0
aF1.0
aF1.0
aF1.0
aF1.0
aF1.0
asg29
I21
sS'G0'
p61
(dp62
S'Pe'
p63
(lp64
F50.0
aF50.0
aF60.0
aF60.0
aF60.0
aF60.0
aF60.0
aF60.0
aF60.0
aF60.0
aF60.0
aF60.0
aF50.0
aF50.0
aF50.000003814697266
aF50.0
aF50.000007629394531
aF50.000003814697266
aF50.0
aF50.000007629394531
aF50.000003814697266
asS'Hpu'
p65
F3.7000000000000002
sS'Slack'
p66
I0
sS'Mbase'
p67
F100.0
sS'St'
p68
(lp69
I1
aI1
aI1
aI1
aI1
aI1
aI1
aI1
aI1
aI1
aI1
aI1
aI1
aI1
aI1
aI1
aI1
aI1
aI1
aI1
aI1
asS'Pm'
p70
(lp71
F50.0
aF50.0
aF50.0
aF50.0
aF50.0
aF50.0
aF50.0
aF50.0
aF50.0
aF50.0
aF50.0
aF50.0
aF50.0
aF50.0
aF50.0
aF50.0
aF50.0
aF50.0
aF50.0
aF50.0
aF50.0
asS'Q'
p72
(lp73
F2.7583422660827637
aF2.7583422660827637
aF3.9773690700531006
aF3.9774239063262939
aF3.9774239063262939
aF3.9774239063262939
aF3.9774239063262939
aF3.9774239063262939
aF3.9774239063262939
aF3.9774239063262939
aF3.9774239063262939
aF3.9774239063262939
aF2.7583756446838379
aF2.7583422660827637
aF2.7583456039428711
aF2.7583422660827637
aF2.7583456039428711
aF2.7583456039428711
aF2.7583422660827637
aF2.7583456039428711
aF2.7583456039428711
assg27
S'21'
p74
ssS'x1'
p75
(dp76
g25
(lp77
F0.99849432706832886
aF0.99849432706832886
aF0.99782818555831909
aF0.99782812595367432
aF0.99782812595367432
aF0.99782812595367432
aF0.99782812595367432
aF0.99782812595367432
aF0.99782812595367432
aF0.99782812595367432
aF0.99782812595367432
aF0.99782812595367432
aF0.99849426746368408
aF0.99849432706832886
aF0.99849432706832886
aF0.99849432706832886
aF0.99849432706832886
aF0.99849432706832886
aF0.99849432706832886
aF0.99849432706832886
aF0.99849432706832886
asg27
S'1'
p78
sg29
I1
sg30
(lp79
F-0.72395294904708862
aF-0.72395294904708862
aF-0.73402351140975952
aF-0.73402351140975952
aF-0.73402351140975952
aF-0.73402351140975952
aF-0.73402351140975952
aF-0.73402351140975952
aF-0.73402351140975952
aF-0.73402351140975952
aF-0.73402351140975952
aF-0.73402351140975952
aF-0.72395294904708862
aF-0.72395294904708862
aF-0.72395294904708862
aF-0.72395294904708862
aF-0.72395294904708862
aF-0.72395294904708862
aF-0.72395294904708862
aF-0.72395294904708862
aF-0.72395294904708862
assS'L3'
p80
(dp81
S'L0'
p82
(dp83
S'P'
p84
(lp85
F100.0
aF100.0
aF100.0
aF100.0
aF100.0
aF100.0
aF100.0
aF100.0
aF100.0
aF100.0
aF100.0
aF100.0
aF100.0
aF100.0
aF100.0
aF100.0
aF100.0
aF100.0
aF100.0
aF100.0
aF100.0
asS'St'
p86
(lp87
I1
aI1
aI1
aI1
aI1
aI1
aI1
aI1
aI1
aI1
aI1
aI1
aI1
aI1
aI1
aI1
aI1
aI1
aI1
aI1
aI1
asS'Q'
p88
(lp89
F0.0
aF0.0
aF0.0
aF0.0
aF0.0
aF0.0
aF0.0
aF0.0
aF0.0
aF0.0
aF0.0
aF0.0
aF0.0
aF0.0
aF0.0
aF0.0
aF0.0
aF0.0
aF0.0
aF0.0
aF0.0
assg30
(lp90
F-0.72896814346313477
aF-0.72896814346313477
aF-0.74004977941513062
aF-0.74004977941513062
aF-0.74004977941513062
aF-0.74004977941513062
aF-0.74004977941513062
aF-0.74004977941513062
aF-0.74004977941513062
aF-0.74004977941513062
aF-0.74004977941513062
aF-0.74004977941513062
aF-0.72896814346313477
aF-0.72896814346313477
aF-0.72896814346313477
aF-0.72896814346313477
aF-0.72896814346313477
aF-0.72896814346313477
aF-0.72896814346313477
aF-0.72896814346313477
aF-0.72896814346313477
asg25
(lp91
F0.99848175048828125
aF0.99848175048828125
aF0.9978100061416626
aF0.9978100061416626
aF0.9978100061416626
aF0.9978100061416626
aF0.9978100061416626
aF0.9978100061416626
aF0.9978100061416626
aF0.9978100061416626
aF0.9978100061416626
aF0.9978100061416626
aF0.99848175048828125
aF0.99848175048828125
aF0.99848175048828125
aF0.99848175048828125
aF0.99848175048828125
aF0.99848175048828125
aF0.99848175048828125
aF0.99848175048828125
aF0.99848175048828125
asS'L1'
p92
(dp93
g84
(lp94
F20.0
aF20.0
aF20.0
aF20.0
aF20.0
aF20.0
aF20.0
aF20.0
aF20.0
aF20.0
aF20.0
aF20.0
aF20.0
aF20.0
aF20.0
aF20.0
aF20.0
aF20.0
aF20.0
aF20.0
aF20.0
asg86
(lp95
I0
aI0
aI1
aI1
aI1
aI1
aI1
aI1
aI1
aI1
aI1
aI1
aI0
aI0
aI0
aI0
aI0
aI0
aI0
aI0
aI0
asg88
(lp96
F0.0
aF0.0
aF0.0
aF0.0
aF0.0
aF0.0
aF0.0
aF0.0
aF0.0
aF0.0
aF0.0
aF0.0
aF0.0
aF0.0
aF0.0
aF0.0
aF0.0
aF0.0
aF0.0
aF0.0
aF0.0
assg29
I3
sg27
S'3'
p97
sssS'N'
p98
I21
sS'fdot'
p99
(lp100
F0.0
aF0.0
aF0.0
aF-0.013513513513513513
aF-0.013698627524179953
aF-0.0138915291874947
aF-0.014092775742700866
aF-0.014302984867429992
aF-0.014522840053871824
aF-0.01475309989155924
aF-0.01499460899967015
aF-0.015248310966341605
aF-0.015515263744862756
aF3.0129739932904115e-09
aF6.025947965357286e-09
aF0.0
aF9.038921884365316e-09
aF0.0
aF6.0259478592395996e-09
aF9.0389217251887901e-09
aF0.0
as.
