(dp0
S'Pm'
p1
(lp2
F100.00000762939453
aF100.00000762939453
aF100.00000762939453
aF100.00000762939453
aF100.00000762939453
aF100.00000762939453
aF100.00000762939453
aF100.00000762939453
aF100.00000762939453
aF100.00000762939453
aF100.00000762939453
aF100.00000762939453
aF100.00000762939453
aF100.00000762939453
aF100.00000762939453
aF100.00000762939453
aF100.00000762939453
aF100.00000762939453
aF100.00000762939453
aF100.00000762939453
aF100.00000762939453
asS't'
p3
(lp4
F0.0
aF1.0
aF2.0
aF3.0
aF4.0
aF5.0
aF6.0
aF7.0
aF8.0
aF9.0
aF10.0
aF11.0
aF12.0
aF13.0
aF14.0
aF15.0
aF16.0
aF17.0
aF18.0
aF19.0
aF20.0
asS'Qgen'
p5
(lp6
F0.0
aF0.0
aF0.0
aF0.0
aF0.0
aF0.0
aF0.0
aF0.0
aF0.0
aF0.0
aF0.0
aF0.0
aF0.0
aF0.0
aF0.0
aF0.0
aF0.0
aF0.0
aF0.0
aF0.0
aF0.0
asS'deltaF'
p7
(lp8
F0.0
aF0.0
aF0.0
aF0.013513513513513598
aF0.013333338419596386
aF0.013160208499514603
aF0.012993679737989927
aF0.012833342041450369
aF0.012678820178524841
aF0.01252977005519007
aF0.012385875465545926
aF0.012246845248013116
aF0.012112410788448713
aF0.011982323821206675
aF0.011856354486988963
aF0.0117342896127548
aF0.011615931184272954
aF0.011501094986306359
aF0.011389609389102162
aF0.01128131426292045
aF0.011176060004932431
asS'Pload'
p9
(lp10
F100.0
aF100.0
aF80.0
aF80.0
aF80.0
aF80.0
aF80.0
aF80.0
aF80.0
aF80.0
aF80.0
aF80.0
aF80.0
aF80.0
aF80.0
aF80.0
aF80.0
aF80.0
aF80.0
aF80.0
aF80.0
asS'Qload'
p11
(lp12
F0.0
aF0.0
aF0.0
aF0.0
aF0.0
aF0.0
aF0.0
aF0.0
aF0.0
aF0.0
aF0.0
aF0.0
aF0.0
aF0.0
aF0.0
aF0.0
aF0.0
aF0.0
aF0.0
aF0.0
aF0.0
asS'Pacc'
p13
(lp14
F0.0
aF0.0
aF20.0
aF20.000007629394531
aF20.000007629394531
aF20.000007629394531
aF20.000007629394531
aF20.000007629394531
aF20.000007629394531
aF20.000007629394531
aF20.000007629394531
aF20.000007629394531
aF20.000007629394531
aF20.000007629394531
aF20.000007629394531
aF20.000007629394531
aF20.000007629394531
aF20.000007629394531
aF20.000007629394531
aF20.000007629394531
aF20.000007629394531
asS'f'
p15
(lp16
F1.0
aF1.0
aF1.0
aF1.0135135135135136
aF1.02684685193311
aF1.0400070604326246
aF1.0530007401706145
aF1.0658340822120649
aF1.0785129023905897
aF1.0910426724457798
aF1.1034285479113257
aF1.1156753931593388
aF1.1277878039477876
aF1.1397701277689942
aF1.1516264822559832
aF1.163360771868738
aF1.1749767030530109
aF1.1864777980393173
aF1.1978674074284195
aF1.2091487216913399
aF1.2203247816962723
asS'Hsys'
p17
F740.0
sS'Pe'
p18
(lp19
F100.00000762939453
aF100.00000762939453
aF80.0
aF80.0
aF80.0
aF80.0
aF80.0
aF80.0
aF80.0
aF80.0
aF80.0
aF80.0
aF80.0
aF80.0
aF80.0
aF80.0
aF80.0
aF80.0
aF80.0
aF80.0
aF80.0
asS'Sbase'
p20
F100.0
sS'A1'
p21
(dp22
S'x2'
p23
(dp24
S'Vm'
p25
(lp26
F0.99849432706832886
aF0.99849432706832886
aF0.99903768301010132
aF0.99903768301010132
aF0.99903768301010132
aF0.99903768301010132
aF0.99903768301010132
aF0.99903768301010132
aF0.99903768301010132
aF0.99903768301010132
aF0.99903768301010132
aF0.99903768301010132
aF0.99903768301010132
aF0.99903768301010132
aF0.99903768301010132
aF0.99903768301010132
aF0.99903768301010132
aF0.99903768301010132
aF0.99903768301010132
aF0.99903768301010132
aF0.99903768301010132
asS'BusName'
p27
S'2'
p28
sS'BusNum'
p29
I2
sS'Va'
p30
(lp31
F-0.72395294904708862
aF-0.72395294904708862
aF-0.71390587091445923
aF-0.71390587091445923
aF-0.71390587091445923
aF-0.71390587091445923
aF-0.71390587091445923
aF-0.71390587091445923
aF-0.71390587091445923
aF-0.71390587091445923
aF-0.71390587091445923
aF-0.71390587091445923
aF-0.71390587091445923
aF-0.71390587091445923
aF-0.71390587091445923
aF-0.71390587091445923
aF-0.71390587091445923
aF-0.71390587091445923
aF-0.71390587091445923
aF-0.71390587091445923
aF-0.71390587091445923
assS'Nload'
p32
I2
sS'Ngen'
p33
I2
sS'S11'
p34
(dp35
g30
(lp36
F-0.67385661602020264
aF-0.67385661602020264
aF-0.67385661602020264
aF-0.67385661602020264
aF-0.67385661602020264
aF-0.67385661602020264
aF-0.67385661602020264
aF-0.67385661602020264
aF-0.67385661602020264
aF-0.67385661602020264
aF-0.67385661602020264
aF-0.67385661602020264
aF-0.67385661602020264
aF-0.67385661602020264
aF-0.67385661602020264
aF-0.67385661602020264
aF-0.67385661602020264
aF-0.67385661602020264
aF-0.67385661602020264
aF-0.67385661602020264
aF-0.67385661602020264
asg25
(lp37
F1.0
aF1.0
aF1.0
aF1.0
aF1.0
aF1.0
aF1.0
aF1.0
aF1.0
aF1.0
aF1.0
aF1.0
aF1.0
aF1.0
aF1.0
aF1.0
aF1.0
aF1.0
aF1.0
aF1.0
aF1.0
asS'S0'
p38
(dp39
S'Hpu'
p40
F3.7000000000000002
sS'Pe'
p41
(lp42
F50.000007629394531
aF50.000007629394531
aF40.0
aF40.000003814697266
aF40.000003814697266
aF40.000003814697266
aF40.000003814697266
aF40.000003814697266
aF40.000003814697266
aF40.000003814697266
aF40.000003814697266
aF40.000003814697266
aF40.000003814697266
aF40.000003814697266
aF40.000003814697266
aF40.000003814697266
aF40.000003814697266
aF40.000003814697266
aF40.000003814697266
aF40.000003814697266
aF40.000003814697266
asS'Q'
p43
(lp44
F2.7583422660827637
aF2.7583422660827637
aF1.7633944749832153
aF1.7634074687957764
aF1.7634074687957764
aF1.7634074687957764
aF1.7634074687957764
aF1.7634074687957764
aF1.7634074687957764
aF1.7634074687957764
aF1.7634074687957764
aF1.7634074687957764
aF1.7634074687957764
aF1.7634074687957764
aF1.7634074687957764
aF1.7634074687957764
aF1.7634074687957764
aF1.7634074687957764
aF1.7634074687957764
aF1.7634074687957764
aF1.7634074687957764
asS'Pm'
p45
(lp46
F50.000007629394531
aF50.000007629394531
aF50.000007629394531
aF50.000007629394531
aF50.000007629394531
aF50.000007629394531
aF50.000007629394531
aF50.000007629394531
aF50.000007629394531
aF50.000007629394531
aF50.000007629394531
aF50.000007629394531
aF50.000007629394531
aF50.000007629394531
aF50.000007629394531
aF50.000007629394531
aF50.000007629394531
aF50.000007629394531
aF50.000007629394531
aF50.000007629394531
aF50.000007629394531
asS'St'
p47
(lp48
I1
aI1
aI1
aI1
aI1
aI1
aI1
aI1
aI1
aI1
aI1
aI1
aI1
aI1
aI1
aI1
aI1
aI1
aI1
aI1
aI1
asS'Pe_error'
p49
(lp50
F0.0
aF0.0
aF-7.62939453125e-06
aF7.62939453125e-06
aF0.0
aF0.0
aF0.0
aF0.0
aF0.0
aF0.0
aF0.0
aF0.0
aF0.0
aF0.0
aF0.0
aF0.0
aF0.0
aF0.0
aF0.0
aF0.0
aF0.0
asS'Pe_calc'
p51
(lp52
F50.000007629394531
aF50.000007629394531
aF40.000007629394531
aF39.999996185302734
aF40.000003814697266
aF40.000003814697266
aF40.000003814697266
aF40.000003814697266
aF40.000003814697266
aF40.000003814697266
aF40.000003814697266
aF40.000003814697266
aF40.000003814697266
aF40.000003814697266
aF40.000003814697266
aF40.000003814697266
aF40.000003814697266
aF40.000003814697266
aF40.000003814697266
aF40.000003814697266
aF40.000003814697266
asS'Slack'
p53
I1
sS'Mbase'
p54
F100.0
ssg29
I11
sg27
S'11'
p55
ssS'AreaNum'
p56
I1
sS'G21'
p57
(dp58
g30
(lp59
F-0.67385661602020264
aF-0.67385661602020264
aF-0.67385661602020264
aF-0.67385661602020264
aF-0.67385661602020264
aF-0.67385661602020264
aF-0.67385661602020264
aF-0.67385661602020264
aF-0.67385661602020264
aF-0.67385661602020264
aF-0.67385661602020264
aF-0.67385661602020264
aF-0.67385661602020264
aF-0.67385661602020264
aF-0.67385661602020264
aF-0.67385661602020264
aF-0.67385661602020264
aF-0.67385661602020264
aF-0.67385661602020264
aF-0.67385661602020264
aF-0.67385661602020264
asg25
(lp60
F1.0
aF1.0
aF1.0
aF1.0
aF1.0
aF1.0
aF1.0
aF1.0
aF1.0
aF1.0
aF1.0
aF1.0
aF1.0
aF1.0
aF1.0
aF1.0
aF1.0
aF1.0
aF1.0
aF1.0
aF1.0
asg29
I21
sS'G0'
p61
(dp62
S'Pe'
p63
(lp64
F50.0
aF50.0
aF40.0
aF39.999996185302734
aF39.999996185302734
aF39.999996185302734
aF39.999996185302734
aF39.999996185302734
aF39.999996185302734
aF39.999996185302734
aF39.999996185302734
aF39.999996185302734
aF39.999996185302734
aF39.999996185302734
aF39.999996185302734
aF39.999996185302734
aF39.999996185302734
aF39.999996185302734
aF39.999996185302734
aF39.999996185302734
aF39.999996185302734
asS'Hpu'
p65
F3.7000000000000002
sS'Slack'
p66
I0
sS'Mbase'
p67
F100.0
sS'St'
p68
(lp69
I1
aI1
aI1
aI1
aI1
aI1
aI1
aI1
aI1
aI1
aI1
aI1
aI1
aI1
aI1
aI1
aI1
aI1
aI1
aI1
aI1
asS'Pm'
p70
(lp71
F50.0
aF50.0
aF50.0
aF50.0
aF50.0
aF50.0
aF50.0
aF50.0
aF50.0
aF50.0
aF50.0
aF50.0
aF50.0
aF50.0
aF50.0
aF50.0
aF50.0
aF50.0
aF50.0
aF50.0
aF50.0
asS'Q'
p72
(lp73
F2.7583422660827637
aF2.7583422660827637
aF1.7633944749832153
aF1.7634087800979614
aF1.7634087800979614
aF1.7634087800979614
aF1.7634087800979614
aF1.7634087800979614
aF1.7634087800979614
aF1.7634087800979614
aF1.7634087800979614
aF1.7634087800979614
aF1.7634087800979614
aF1.7634087800979614
aF1.7634087800979614
aF1.7634087800979614
aF1.7634087800979614
aF1.7634087800979614
aF1.7634087800979614
aF1.7634087800979614
aF1.7634087800979614
assg27
S'21'
p74
ssS'x1'
p75
(dp76
g25
(lp77
F0.99849432706832886
aF0.99849432706832886
aF0.99903768301010132
aF0.99903768301010132
aF0.99903768301010132
aF0.99903768301010132
aF0.99903768301010132
aF0.99903768301010132
aF0.99903768301010132
aF0.99903768301010132
aF0.99903768301010132
aF0.99903768301010132
aF0.99903768301010132
aF0.99903768301010132
aF0.99903768301010132
aF0.99903768301010132
aF0.99903768301010132
aF0.99903768301010132
aF0.99903768301010132
aF0.99903768301010132
aF0.99903768301010132
asg27
S'1'
p78
sg29
I1
sg30
(lp79
F-0.72395294904708862
aF-0.72395294904708862
aF-0.71390587091445923
aF-0.71390587091445923
aF-0.71390587091445923
aF-0.71390587091445923
aF-0.71390587091445923
aF-0.71390587091445923
aF-0.71390587091445923
aF-0.71390587091445923
aF-0.71390587091445923
aF-0.71390587091445923
aF-0.71390587091445923
aF-0.71390587091445923
aF-0.71390587091445923
aF-0.71390587091445923
aF-0.71390587091445923
aF-0.71390587091445923
aF-0.71390587091445923
aF-0.71390587091445923
aF-0.71390587091445923
assS'L3'
p80
(dp81
S'L0'
p82
(dp83
S'P'
p84
(lp85
F100.0
aF100.0
aF80.0
aF80.0
aF80.0
aF80.0
aF80.0
aF80.0
aF80.0
aF80.0
aF80.0
aF80.0
aF80.0
aF80.0
aF80.0
aF80.0
aF80.0
aF80.0
aF80.0
aF80.0
aF80.0
asS'St'
p86
(lp87
I1
aI1
aI1
aI1
aI1
aI1
aI1
aI1
aI1
aI1
aI1
aI1
aI1
aI1
aI1
aI1
aI1
aI1
aI1
aI1
aI1
asS'Q'
p88
(lp89
F0.0
aF0.0
aF0.0
aF0.0
aF0.0
aF0.0
aF0.0
aF0.0
aF0.0
aF0.0
aF0.0
aF0.0
aF0.0
aF0.0
aF0.0
aF0.0
aF0.0
aF0.0
aF0.0
aF0.0
aF0.0
assg30
(lp90
F-0.72896814346313477
aF-0.72896814346313477
aF-0.71791362762451172
aF-0.71791362762451172
aF-0.71791362762451172
aF-0.71791362762451172
aF-0.71791362762451172
aF-0.71791362762451172
aF-0.71791362762451172
aF-0.71791362762451172
aF-0.71791362762451172
aF-0.71791362762451172
aF-0.71791362762451172
aF-0.71791362762451172
aF-0.71791362762451172
aF-0.71791362762451172
aF-0.71791362762451172
aF-0.71791362762451172
aF-0.71791362762451172
aF-0.71791362762451172
aF-0.71791362762451172
asg25
(lp91
F0.99848175048828125
aF0.99848175048828125
aF0.99902969598770142
aF0.99902963638305664
aF0.99902963638305664
aF0.99902963638305664
aF0.99902963638305664
aF0.99902963638305664
aF0.99902963638305664
aF0.99902963638305664
aF0.99902963638305664
aF0.99902963638305664
aF0.99902963638305664
aF0.99902963638305664
aF0.99902963638305664
aF0.99902963638305664
aF0.99902963638305664
aF0.99902963638305664
aF0.99902963638305664
aF0.99902963638305664
aF0.99902963638305664
asS'L1'
p92
(dp93
g84
(lp94
F20.0
aF20.0
aF20.0
aF20.0
aF20.0
aF20.0
aF20.0
aF20.0
aF20.0
aF20.0
aF20.0
aF20.0
aF20.0
aF20.0
aF20.0
aF20.0
aF20.0
aF20.0
aF20.0
aF20.0
aF20.0
asg86
(lp95
I0
aI0
aI0
aI0
aI0
aI0
aI0
aI0
aI0
aI0
aI0
aI0
aI0
aI0
aI0
aI0
aI0
aI0
aI0
aI0
aI0
asg88
(lp96
F0.0
aF0.0
aF0.0
aF0.0
aF0.0
aF0.0
aF0.0
aF0.0
aF0.0
aF0.0
aF0.0
aF0.0
aF0.0
aF0.0
aF0.0
aF0.0
aF0.0
aF0.0
aF0.0
aF0.0
aF0.0
assg29
I3
sg27
S'3'
p97
sssS'N'
p98
I21
sS'fdot'
p99
(lp100
F0.0
aF0.0
aF0.0
aF0.013513513513513513
aF0.013333338419596351
aF0.013160208499514494
aF0.012993679737989886
aF0.012833342041450287
aF0.012678820178524827
aF0.012529770055190138
aF0.012385875465545902
aF0.012246845248013102
aF0.012112410788448607
aF0.011982323821206568
aF0.011856354486988891
aF0.011734289612754871
aF0.011615931184272859
aF0.011501094986306406
aF0.011389609389102119
aF0.01128131426292049
aF0.01117606000493248
as.
