(dp0
S'N'
p1
I17
sS'Pload'
p2
(lp3
F105985.0
aF105985.0
aF105970.0
aF105970.0
aF105970.0
aF105970.0
aF105970.0
aF105970.0
aF105970.0
aF105970.0
aF105970.0
aF105970.0
aF106005.0
aF106005.0
aF106005.0
aF106005.0
aF106005.0
aF0.0
aF0.0
aF0.0
aF0.0
asS'Pe'
p4
(lp5
F107509.38336181641
aF107509.38336181641
aF107495.23571777344
aF107495.18118286133
aF107495.18370056152
aF107495.18379211426
aF107495.18379211426
aF107495.18379211426
aF107495.18379211426
aF107495.18379211426
aF107495.18379211426
aF107495.18379211426
aF107528.21276855469
aF107528.33615112305
aF107528.32794189453
aF107528.33024597168
aF107528.33012390137
aF0.0
aF0.0
aF0.0
aF0.0
asS'Sbase'
p6
F100.0
sS'Pacc'
p7
(lp8
F0.0
aF0.0
aF15.0
aF14.14764404296875
aF14.202178955078125
aF14.199661254882813
aF14.199569702148438
aF14.199569702148438
aF14.199569702148438
aF14.199569702148438
aF14.199569702148438
aF14.199569702148438
aF-20.800430297851562
aF-18.82940673828125
aF-18.952789306640625
aF-18.944580078125
aF-18.946884155273438
aF0.0
aF0.0
aF0.0
aF0.0
asS'fdot'
p9
(lp10
F0.0
aF0.0
aF0.0
aF7.6779754714276928e-06
aF7.2416842626936119e-06
aF7.2695987771944296e-06
aF7.2683100545048272e-06
aF7.2682631918615692e-06
aF7.2682631918615692e-06
aF7.2682631918615692e-06
aF7.2682631918615692e-06
aF7.2682631918615692e-06
aF7.2682631918615692e-06
aF-1.0647012908136382e-05
aF-9.6381148718705859e-06
aF-9.7012700941015871e-06
aF-9.6970680770894323e-06
aF0.0
aF0.0
aF0.0
aF0.0
asS'Pm'
p11
(lp12
F107509.38336181641
aF107509.38336181641
aF107509.38336181641
aF107509.38336181641
aF107509.38336181641
aF107509.38336181641
aF107509.38336181641
aF107509.38336181641
aF107509.38336181641
aF107509.38336181641
aF107509.38336181641
aF107509.38336181641
aF107509.38336181641
aF107509.38336181641
aF107509.38336181641
aF107509.38336181641
aF107509.38336181641
aF0.0
aF0.0
aF0.0
aF0.0
asS'Qload'
p13
(lp14
F27121.25
aF27121.25
aF27121.25
aF27121.25
aF27121.25
aF27121.25
aF27121.25
aF27121.25
aF27121.25
aF27121.25
aF27121.25
aF27121.25
aF27121.25
aF27121.25
aF27121.25
aF27121.25
aF27121.25
aF0.0
aF0.0
aF0.0
aF0.0
asS'Hsys'
p15
F976820.0
sS't'
p16
(lp17
F0.0
aF1.0
aF2.0
aF3.0
aF4.0
aF5.0
aF6.0
aF7.0
aF8.0
aF9.0
aF10.0
aF11.0
aF12.0
aF13.0
aF14.0
aF15.0
aF16.0
aF0.0
aF0.0
aF0.0
aF0.0
asS'Qgen'
p18
(lp19
F0.0
aF0.0
aF0.0
aF0.0
aF0.0
aF0.0
aF0.0
aF0.0
aF0.0
aF0.0
aF0.0
aF0.0
aF0.0
aF0.0
aF0.0
aF0.0
aF0.0
aF0.0
aF0.0
aF0.0
aF0.0
asS'f'
p20
(lp21
F1.0
aF1.0
aF1.0
aF1.0000076779754714
aF1.0000149196597341
aF1.0000221892585113
aF1.0000294575685658
aF1.0000367258317575
aF1.0000439940949493
aF1.000051262358141
aF1.0000585306213328
aF1.0000657988845245
aF1.0000730671477163
aF1.0000624201348081
aF1.0000527820199361
aF1.0000430807498419
aF1.0000333836817648
aF0.0
aF0.0
aF0.0
aF0.0
asS'deltaF'
p22
(lp23
F0.0
aF0.0
aF0.0
aF7.6779754714095816e-06
aF7.2416842626932265e-06
aF7.269598777170927e-06
aF7.268310054486804e-06
aF7.26826319175089e-06
aF7.26826319175089e-06
aF7.26826319175089e-06
aF7.26826319175089e-06
aF7.26826319175089e-06
aF7.26826319175089e-06
aF-1.06470129082048e-05
aF-9.6381148719792975e-06
aF-9.7012700941423446e-06
aF-9.6970680771857332e-06
aF0.0
aF0.0
aF0.0
aF0.0
as.