(dp0
S'fdot'
p1
(lp2
F0.0
aF0.0
aF0.0
aF0.0
aF0.0
aF-0.0006756756756756756
aF9.1405394003363803e-06
aF-0.00022847258259400507
aF6.2542638505553914e-06
aF-7.7306011047913298e-05
aF3.193439164631386e-06
aF-2.6174234695873508e-05
aF1.4432963864738489e-06
aF-8.8646707095500043e-06
aF6.0949466187288318e-07
aF-3.0022795773859658e-06
aF2.4552146641692562e-07
aF-1.0156538630535305e-06
aF9.4648384001290579e-08
aF-3.4204610417670783e-07
aF3.6787379040939096e-08
aF-1.1612969178377004e-07
aF1.4062574273481974e-08
aF-4.2028580986393833e-08
aF5.3425076186132558e-09
aF-1.1702064975592597e-08
aF-6.0891447708048714e-10
aF-3.946840668639703e-09
aF2.4283069145302916e-09
aF-3.9468927563413389e-09
aF3.4549093331094659e-09
aF-1.3825163728565672e-09
aF-1.3916210406294382e-09
aF-4.4778872214662132e-10
aF-4.6409915693713513e-10
aF-1.4484882852469611e-10
aF-1.5483772612684566e-10
aF-4.6789012731063401e-11
aF-5.1680338066184308e-11
aF-1.5090399026549833e-11
aF-1.7256717135584659e-11
aF-4.8587777267964993e-12
aF-5.7648078531937342e-12
aF-1.561420609941849e-12
aF-1.9266205341844986e-12
aF-5.0077012892381077e-13
aF-6.4412178667886179e-13
aF-1.6033636026896825e-13
aF-2.1542136265255824e-13
aF-5.1203882578410405e-14
aF-7.2069704897416312e-14
aF-1.6235377402911034e-14
aF-2.4036043942061054e-14
aF-5.2740959728983619e-15
aF-7.9735877185894937e-15
aF-1.6715714012464799e-15
aF-2.7283119422643672e-15
aF-6.2443759241966259e-16
aF-9.2224629034288591e-16
aF-1.729211794392912e-16
aF-3.2662889449643897e-16
aF0.00067601367993683724
aF-9.4732578142877092e-06
aF0.00022854959696153162
aF-6.3275497837290877e-06
aF7.7302600917729164e-05
aF-3.1867294171918362e-06
aF2.6159306216629586e-05
aF-1.4331841688624873e-06
aF8.8596048309887337e-06
aF-6.0396600859882296e-07
aF3.001277825047316e-06
aF-2.4718448554110057e-07
aF1.0198637602106656e-06
aF-9.7290973248753184e-08
aF3.4586339026687723e-07
aF-3.7542487696025349e-08
aF1.1219808266759691e-07
aF-9.0444758335235979e-09
aF3.8026981033956768e-08
aF-9.9194683297881554e-10
aF5.1278634626337702e-09
aF2.1730856099060609e-09
aF-8.7447797415153369e-10
aF7.459678428638078e-10
aF-3.0551238649128157e-10
aF2.5614464548260019e-10
aF-1.0667503876392382e-10
aF8.7976761017106186e-11
aF-3.7227590378728555e-11
aF3.0224913263577373e-11
aF-1.2985418146041453e-11
aF1.0386569682488051e-11
aF-4.527328662097789e-12
aF3.5700931700494698e-12
aF-1.5777313389668755e-12
aF1.2273761586669331e-12
aF-5.4943197139070488e-13
aF4.2215840433024757e-13
aF-1.9146246150073498e-13
aF1.4520036824547823e-13
aF-6.663738629966016e-14
aF4.9930030080441316e-14
aF-2.313104662764935e-14
aF1.7072229515965863e-14
aF-8.1232318169329874e-15
aF5.8187688901435473e-15
aF-2.7269477967009189e-15
aF1.920385772324598e-15
aF-9.2178517071580491e-16
aF5.7611573169737866e-16
aF-3.2646558129518109e-16
aF1.2482507520109869e-16
aF-1.9203857723245949e-17
aF-1.9203857723245949e-17
aF-1.9203857723245949e-17
aF-1.9203857723245949e-17
aF-1.9203857723245949e-17
aF-1.9203857723245949e-17
aF-1.9203857723245949e-17
aF-1.9203857723245949e-17
asS'Pm'
p3
(lp4
F100.00000762939453
aF100.00000762939453
aF100.00000762939453
aF100.00000762939453
aF100.00000762939453
aF101.01352114290795
aF100.66197249596964
aF101.00925163956086
aF100.88563395248818
aF101.00472010098515
aF100.9612769367143
aF101.00213500834053
aF100.98688294641289
aF101.00090160067032
aF100.99555502332279
aF101.00036319001981
aF100.99849376803148
aF101.00014000955925
aF100.9994902100517
aF101.00005060339989
aF100.99982439927912
aF101.00001698750626
aF100.99993782879912
aF101.00000790295782
aF100.99997887490585
aF100.99999909925717
aF100.99999416159643
aF100.99999977740004
aF100.99999416151938
aF101.00000129601193
aF100.99999414020155
aF100.99999794143065
aF100.99999933760405
aF100.99999931347668
aF100.99999978573092
aF100.99999977095474
aF100.99999993078689
aF100.99999992355134
aF100.99999997767738
aF100.99999997447283
aF100.9999999928126
aF100.99999999147235
aF100.99999999769025
aF100.99999999715003
aF100.99999999925923
aF100.99999999904718
aF100.99999999976282
aF100.99999999968134
aF100.99999999992426
aF100.99999999989339
aF100.99999999997598
aF100.99999999996444
aF100.9999999999922
aF100.99999999998821
aF100.99999999999753
aF100.99999999999596
aF100.99999999999908
aF100.99999999999864
aF100.99999999999974
aF100.99999999999952
aF100.99999999999997
aF99.985979480094571
aF100.3381962067844
aF99.990635182434659
aF100.114401305591
aF99.995283629322515
aF100.03871502390726
aF99.997882699873742
aF100.01311212923535
aF99.999106129904362
aF100.00444188133284
aF99.99963798159105
aF100.00150939723173
aF99.999856009348676
aF100.00051187768854
aF99.999944437116454
aF100.00017368254309
aF99.999986614175626
aF100.00005627993056
aF99.999994717221412
aF100.00001521863243
aF100.00000703086397
aF100.00000633516713
aF100.00000873342694
aF100.0000071772362
aF100.00000800848861
aF100.00000747151547
aF100.00000775960014
aF100.0000075742977
aF100.0000076741274
aF100.00000761017611
aF100.00000764476665
aF100.00000762269409
aF100.00000763467827
aF100.00000762705949
aF100.00000763121105
aF100.00000762858137
aF100.00000763001933
aF100.00000762911117
aF100.00000762960943
aF100.00000762929591
aF100.00000762946843
aF100.0000076293603
aF100.0000076294198
aF100.00000762938251
aF100.00000762940314
aF100.0000076293905
aF100.00000762939737
aF100.00000762939317
aF100.00000762939538
aF100.00000762939405
aF100.00000762939472
aF100.0000076293945
aF100.0000076293945
aF100.0000076293945
aF100.0000076293945
aF100.0000076293945
aF100.0000076293945
aF100.0000076293945
aF100.0000076293945
aF100.0000076293945
asS't'
p5
(lp6
F0.0
aF0.5
aF1.0
aF1.5
aF2.0
aF2.5
aF3.0
aF3.5
aF4.0
aF4.5
aF5.0
aF5.5
aF6.0
aF6.5
aF7.0
aF7.5
aF8.0
aF8.5
aF9.0
aF9.5
aF10.0
aF10.5
aF11.0
aF11.5
aF12.0
aF12.5
aF13.0
aF13.5
aF14.0
aF14.5
aF15.0
aF15.5
aF16.0
aF16.5
aF17.0
aF17.5
aF18.0
aF18.5
aF19.0
aF19.5
aF20.0
aF20.5
aF21.0
aF21.5
aF22.0
aF22.5
aF23.0
aF23.5
aF24.0
aF24.5
aF25.0
aF25.5
aF26.0
aF26.5
aF27.0
aF27.5
aF28.0
aF28.5
aF29.0
aF29.5
aF30.0
aF30.5
aF31.0
aF31.5
aF32.0
aF32.5
aF33.0
aF33.5
aF34.0
aF34.5
aF35.0
aF35.5
aF36.0
aF36.5
aF37.0
aF37.5
aF38.0
aF38.5
aF39.0
aF39.5
aF40.0
aF40.5
aF41.0
aF41.5
aF42.0
aF42.5
aF43.0
aF43.5
aF44.0
aF44.5
aF45.0
aF45.5
aF46.0
aF46.5
aF47.0
aF47.5
aF48.0
aF48.5
aF49.0
aF49.5
aF50.0
aF50.5
aF51.0
aF51.5
aF52.0
aF52.5
aF53.0
aF53.5
aF54.0
aF54.5
aF55.0
aF55.5
aF56.0
aF56.5
aF57.0
aF57.5
aF58.0
aF58.5
aF59.0
aF59.5
aF60.0
asS'Qgen'
p7
(lp8
F0.0
aF0.0
aF0.0
aF0.0
aF0.0
aF0.0
aF0.0
aF0.0
aF0.0
aF0.0
aF0.0
aF0.0
aF0.0
aF0.0
aF0.0
aF0.0
aF0.0
aF0.0
aF0.0
aF0.0
aF0.0
aF0.0
aF0.0
aF0.0
aF0.0
aF0.0
aF0.0
aF0.0
aF0.0
aF0.0
aF0.0
aF0.0
aF0.0
aF0.0
aF0.0
aF0.0
aF0.0
aF0.0
aF0.0
aF0.0
aF0.0
aF0.0
aF0.0
aF0.0
aF0.0
aF0.0
aF0.0
aF0.0
aF0.0
aF0.0
aF0.0
aF0.0
aF0.0
aF0.0
aF0.0
aF0.0
aF0.0
aF0.0
aF0.0
aF0.0
aF0.0
aF0.0
aF0.0
aF0.0
aF0.0
aF0.0
aF0.0
aF0.0
aF0.0
aF0.0
aF0.0
aF0.0
aF0.0
aF0.0
aF0.0
aF0.0
aF0.0
aF0.0
aF0.0
aF0.0
aF0.0
aF0.0
aF0.0
aF0.0
aF0.0
aF0.0
aF0.0
aF0.0
aF0.0
aF0.0
aF0.0
aF0.0
aF0.0
aF0.0
aF0.0
aF0.0
aF0.0
aF0.0
aF0.0
aF0.0
aF0.0
aF0.0
aF0.0
aF0.0
aF0.0
aF0.0
aF0.0
aF0.0
aF0.0
aF0.0
aF0.0
aF0.0
aF0.0
aF0.0
aF0.0
aF0.0
aF0.0
aF0.0
aF0.0
aF0.0
aF0.0
asS'deltaF'
p9
(lp10
F0.0
aF0.0
aF0.0
aF0.0
aF0.0
aF-0.00050675675675670995
aF0.00017577432346915778
aF-0.00017363957179561407
aF6.1808843536348412e-05
aF-5.9543074248491479e-05
aF2.1721582135425521e-05
aF-2.0429035813118723e-05
aF7.6260309638254142e-06
aF-7.0093271287152703e-06
aF2.6732886737601547e-06
aF-2.4040833485061697e-06
aF9.3471099416042591e-07
aF-8.2312076388202371e-07
aF3.2489975376748248e-07
aF-2.8019667408507587e-07
aF1.1310206038395165e-07
aF-9.6294113571815387e-08
aF3.9579353572349874e-08
aF-3.5037079348931854e-08
aF1.4514025981071654e-08
aF-1.0112175652388089e-08
aF2.4688303623676688e-09
aF-2.8079017999615985e-09
aF2.807940324700553e-09
aF-3.5672462761482393e-09
aF3.577905194340758e-09
aF-1.9006145546285325e-09
aF-6.980866995576207e-10
aF1.2063683385576951e-11
aF-2.3612711785858664e-10
aF7.3880901396705667e-12
aF-7.9916073758568018e-11
aF3.6177727480435351e-12
aF-2.7063018492867741e-11
aF1.6022738691390259e-12
aF-9.1698870718914804e-12
aF6.7013061766374449e-13
aF-3.1089575358578259e-12
aF2.7011726189130059e-13
aF-1.0546008510914362e-12
aF1.0602629885170245e-13
aF-3.5782488083668795e-13
aF4.0745185003743245e-14
aF-1.2145839889399213e-13
aF1.5432100042289676e-14
aF-4.1300296516055823e-14
aF5.773159728050814e-15
aF-1.3877787807814457e-14
aF1.9984014443252818e-15
aF-4.6629367034256575e-15
aF7.7715611723760958e-16
aF-1.5543122344752192e-15
aF2.2204460492503131e-16
aF-5.5511151231257827e-16
aF1.1102230246251565e-16
aF-2.2204460492503131e-16
aF0.00050701025995270044
aF-0.00017610836334491786
aF0.00017378051217487034
aF-6.1883061578171805e-05
aF5.9558838134243786e-05
aF-2.1715697292368219e-05
aF2.0416162016756445e-05
aF-7.6147146808036581e-06
aF7.0029996654952242e-06
aF-2.6678757142351017e-06
aF2.4019498708893749e-06
aF-9.3570782033758348e-07
aF8.2669394152468101e-07
aF-3.2793416993026625e-07
aF2.8372028604284338e-07
aF-1.146227133208555e-07
aF9.3534183731591725e-08
aF-3.4832877471302481e-08
aF3.0781354576348008e-08
aF-1.0250705506642532e-08
aF4.0938842316151636e-09
aF3.478484167374063e-10
aF-1.199129906481744e-09
aF7.7809536591644246e-10
aF-4.1562620012314255e-10
aF2.6848656631273116e-10
aF-1.4404233361631214e-10
aF9.2651220029438264e-11
aF-4.99148500310298e-11
aF3.1975644354531596e-11
aF-1.7295276322215614e-11
aF1.1036282998588831e-11
aF-5.9920957085068949e-12
aF3.8093972420938371e-12
aF-2.0757839891416552e-12
aF1.3148371280635729e-12
aF-7.1898043074725138e-13
aF4.5408121707168903e-13
aF-2.4913404672588513e-13
aF1.567634910770721e-13
aF-8.6264329013374663e-14
aF5.4067861299245124e-14
aF-2.9753977059954195e-14
aF1.865174681370263e-14
aF-1.0325074129013956e-14
aF6.3282712403633923e-15
aF-3.4416913763379853e-15
aF2.1094237467877974e-15
aF-1.1102230246251565e-15
aF6.6613381477509392e-16
aF-3.3306690738754696e-16
aF1.1102230246251565e-16
aF0.0
aF0.0
aF0.0
aF0.0
aF0.0
aF0.0
aF0.0
aF0.0
asS'Pload'
p11
(lp12
F100.0
aF100.0
aF100.0
aF100.0
aF101.0
aF101.0
aF101.0
aF101.0
aF101.0
aF101.0
aF101.0
aF101.0
aF101.0
aF101.0
aF101.0
aF101.0
aF101.0
aF101.0
aF101.0
aF101.0
aF101.0
aF101.0
aF101.0
aF101.0
aF101.0
aF101.0
aF101.0
aF101.0
aF101.0
aF101.0
aF101.0
aF101.0
aF101.0
aF101.0
aF101.0
aF101.0
aF101.0
aF101.0
aF101.0
aF101.0
aF101.0
aF101.0
aF101.0
aF101.0
aF101.0
aF101.0
aF101.0
aF101.0
aF101.0
aF101.0
aF101.0
aF101.0
aF101.0
aF101.0
aF101.0
aF101.0
aF101.0
aF101.0
aF101.0
aF101.0
aF100.0
aF100.0
aF100.0
aF100.0
aF100.0
aF100.0
aF100.0
aF100.0
aF100.0
aF100.0
aF100.0
aF100.0
aF100.0
aF100.0
aF100.0
aF100.0
aF100.0
aF100.0
aF100.0
aF100.0
aF100.0
aF100.0
aF100.0
aF100.0
aF100.0
aF100.0
aF100.0
aF100.0
aF100.0
aF100.0
aF100.0
aF100.0
aF100.0
aF100.0
aF100.0
aF100.0
aF100.0
aF100.0
aF100.0
aF100.0
aF100.0
aF100.0
aF100.0
aF100.0
aF100.0
aF100.0
aF100.0
aF100.0
aF100.0
aF100.0
aF100.0
aF100.0
aF100.0
aF100.0
aF100.0
aF100.0
aF100.0
aF100.0
aF100.0
aF100.0
aF100.0
asS'Qload'
p13
(lp14
F0.0
aF0.0
aF0.0
aF0.0
aF0.0
aF0.0
aF0.0
aF0.0
aF0.0
aF0.0
aF0.0
aF0.0
aF0.0
aF0.0
aF0.0
aF0.0
aF0.0
aF0.0
aF0.0
aF0.0
aF0.0
aF0.0
aF0.0
aF0.0
aF0.0
aF0.0
aF0.0
aF0.0
aF0.0
aF0.0
aF0.0
aF0.0
aF0.0
aF0.0
aF0.0
aF0.0
aF0.0
aF0.0
aF0.0
aF0.0
aF0.0
aF0.0
aF0.0
aF0.0
aF0.0
aF0.0
aF0.0
aF0.0
aF0.0
aF0.0
aF0.0
aF0.0
aF0.0
aF0.0
aF0.0
aF0.0
aF0.0
aF0.0
aF0.0
aF0.0
aF0.0
aF0.0
aF0.0
aF0.0
aF0.0
aF0.0
aF0.0
aF0.0
aF0.0
aF0.0
aF0.0
aF0.0
aF0.0
aF0.0
aF0.0
aF0.0
aF0.0
aF0.0
aF0.0
aF0.0
aF0.0
aF0.0
aF0.0
aF0.0
aF0.0
aF0.0
aF0.0
aF0.0
aF0.0
aF0.0
aF0.0
aF0.0
aF0.0
aF0.0
aF0.0
aF0.0
aF0.0
aF0.0
aF0.0
aF0.0
aF0.0
aF0.0
aF0.0
aF0.0
aF0.0
aF0.0
aF0.0
aF0.0
aF0.0
aF0.0
aF0.0
aF0.0
aF0.0
aF0.0
aF0.0
aF0.0
aF0.0
aF0.0
aF0.0
aF0.0
aF0.0
asS'Pacc'
p15
(lp16
F0.0
aF0.0
aF0.0
aF0.0
aF-1.0
aF0.013521142907947592
aF-0.33802750403036441
aF0.0092516395608583935
aF-0.11436223281455682
aF0.0047239156824190331
aF-0.038719248588435562
aF0.0021350083405309306
aF-0.013113238889843615
aF0.00090160067031774815
aF-0.0044411619799404889
aF0.00036319001981155452
aF-0.0015024172712543304
aF0.00014000955924586833
aF-0.00050597525103057706
aF5.4418097150232825e-05
aF-0.00017178602361411777
aF2.0802203522407581e-05
aF-6.2171200880811739e-05
aF7.9029578188283267e-06
aF-1.7310396884795409e-05
aF-9.0074283320973336e-07
aF-5.8384035668268552e-06
aF3.5920973004976986e-06
aF-5.8384806180811211e-06
aF5.1107091962876439e-06
aF-2.045101183512088e-06
aF-2.0585693505381641e-06
aF-6.6239594787020906e-07
aF-6.8652332174679032e-07
aF-2.1426907892418967e-07
aF-2.2904525565081713e-07
aF-6.9213115239108447e-08
aF-7.6448657182481838e-08
aF-2.2322623749460035e-08
aF-2.5527171487738087e-08
aF-7.187395567598287e-09
aF-8.5276496974984184e-09
aF-2.3097470602806425e-09
aF-2.8499727022790466e-09
aF-7.4076922373933485e-10
aF-9.5282359779957915e-10
aF-2.3717916519672144e-10
aF-3.1866420613368973e-10
aF-7.574385563202668e-11
aF-1.0660983207344543e-10
aF-2.4016344468691386e-11
aF-3.5555558497435413e-11
aF-7.8017592386459e-12
aF-1.1795009413617663e-11
aF-2.4726887204451486e-12
aF-4.0358827391173691e-12
aF-9.2370555648813024e-13
aF-1.3642420526593924e-12
aF-2.5579538487363607e-13
aF-4.8316906031686813e-13
aF0.99999999999997158
aF-0.014020519905429296
aF0.33819620678440288
aF-0.0093648175653413546
aF0.11440130559100226
aF-0.0047163706774853154
aF0.038715023907258228
aF-0.0021211148235238397
aF0.013112129235352654
aF-0.00089387009563779429
aF0.0044418813328377382
aF-0.00036583310621551846
aF0.0015093972317288262
aF-0.0001439906513240885
aF0.00051187768853822035
aF-5.5562883545690056e-05
aF0.00016605314856121822
aF-1.3385824374267941e-05
aF5.6279930561231595e-05
aF-1.4680813222867073e-06
aF7.5892378958997142e-06
aF3.2161667036234576e-06
aF-1.2942274025817824e-06
aF1.104032406828992e-06
aF-4.5215833210932033e-07
aF3.7909407524239214e-07
aF-1.5787905738307018e-07
aF1.3020560629684042e-07
aF-5.5096833762036113e-08
aF4.4732871629094006e-08
aF-1.9218418856326025e-08
aF1.5372123129964166e-08
aF-6.7004464199271752e-09
aF5.283737891659257e-09
aF-2.335042381673702e-09
aF1.8165167148254113e-09
aF-8.1315931765857385e-10
aF6.247944384085713e-10
aF-2.8336444302112795e-10
aF2.148965450032847e-10
aF-9.8623331723501906e-11
aF7.3896444519050419e-11
aF-3.4233949008921627e-11
aF2.5266899683629163e-11
aF-1.2022383089060895e-11
aF8.6117779574124143e-12
aF-4.0358827391173691e-12
aF2.8421709430404007e-12
aF-1.3642420526593924e-12
aF8.5265128291212022e-13
aF-4.8316906031686813e-13
aF1.8474111129762605e-13
aF-2.8421709430404007e-14
aF-2.8421709430404007e-14
aF-2.8421709430404007e-14
aF-2.8421709430404007e-14
aF-2.8421709430404007e-14
aF-2.8421709430404007e-14
aF-2.8421709430404007e-14
aF-2.8421709430404007e-14
aF-2.8421709430404007e-14
asS'f'
p17
(lp18
F1.0
aF1.0
aF1.0
aF1.0
aF1.0
aF0.99949324324324329
aF0.99966901756671245
aF0.99949537799491683
aF0.99955718683845318
aF0.99949764376420469
aF0.99951936534634012
aF0.999498936310527
aF0.99950656234149082
aF0.99949955301436211
aF0.99950222630303587
aF0.99949982221968736
aF0.99950075693068152
aF0.99949993380991764
aF0.99950025870967141
aF0.99949997851299732
aF0.99950009161505771
aF0.99949999532094413
aF0.99950003490029771
aF0.99949999986321836
aF0.99950001437724434
aF0.99950000426506869
aF0.99950000673389905
aF0.99950000392599725
aF0.99950000673393757
aF0.9995000031666913
aF0.99950000674459649
aF0.99950000484398194
aF0.99950000414589524
aF0.99950000415795892
aF0.9995000039218318
aF0.99950000392921989
aF0.99950000384930382
aF0.99950000385292159
aF0.99950000382585857
aF0.99950000382746085
aF0.99950000381829096
aF0.99950000381896109
aF0.99950000381585213
aF0.99950000381612225
aF0.99950000381506765
aF0.99950000381517368
aF0.99950000381481585
aF0.9995000038148566
aF0.99950000381473514
aF0.99950000381475057
aF0.99950000381470927
aF0.99950000381471504
aF0.99950000381470117
aF0.99950000381470316
aF0.9995000038146985
aF0.99950000381469928
aF0.99950000381469772
aF0.99950000381469795
aF0.99950000381469739
aF0.9995000038146975
aF0.99950000381469728
aF1.00000701407465
aF0.99983090571130506
aF1.0000046862234799
aF0.99994280316190176
aF1.000002362000036
aF0.99998064630274364
aF1.0000010624647604
aF0.99999344775007959
aF1.0000004507497451
aF0.99999778287403085
aF1.0000001848239017
aF0.9999992491160814
aF1.0000000758100229
aF0.999999747875853
aF1.000000031596139
aF0.99999991697342572
aF1.0000000105076095
aF0.99999997567473198
aF1.0000000064560866
aF0.99999999620538105
aF1.0000000002992653
aF1.0000000006471137
aF0.99999999944798379
aF1.0000000002260792
aF0.99999999981045296
aF1.0000000000789395
aF0.99999999993489719
aF1.0000000000275484
aF0.99999999997763356
aF1.0000000000096092
aF0.99999999999231393
aF1.0000000000033502
aF0.99999999999735811
aF1.0000000000011675
aF0.99999999999909173
aF1.0000000000004066
aF0.99999999999968758
aF1.0000000000001417
aF0.99999999999989253
aF1.0000000000000493
aF0.99999999999996303
aF1.0000000000000171
aF0.99999999999998734
aF1.000000000000006
aF0.99999999999999567
aF1.000000000000002
aF0.99999999999999856
aF1.0000000000000007
aF0.99999999999999956
aF1.0000000000000002
aF0.99999999999999989
aF1.0
aF1.0
aF1.0
aF1.0
aF1.0
aF1.0
aF1.0
aF1.0
aF1.0
asS'Hsys'
p19
F740.0
sS'Pe'
p20
(lp21
F100.00000762939453
aF100.00000762939453
aF100.00000762939453
aF100.00000762939453
aF101.0
aF101.0
aF101.0
aF100.99999618530273
aF100.99999618530273
aF100.99999618530273
aF101.0
aF100.99999618530273
aF101.0
aF100.99999618530273
aF101.0
aF100.99999618530273
aF101.0
aF100.99999618530273
aF100.99999618530273
aF100.99999618530273
aF100.99999618530273
aF101.0
aF101.0
aF100.99999618530273
aF101.0
aF101.0
aF100.99999618530273
aF101.0
aF100.99999618530273
aF100.99999618530273
aF101.0
aF101.0
aF101.0
aF101.0
aF101.0
aF101.0
aF101.0
aF101.0
aF101.0
aF101.0
aF101.0
aF101.0
aF101.0
aF101.0
aF101.0
aF101.0
aF101.0
aF101.0
aF101.0
aF101.0
aF101.0
aF101.0
aF101.0
aF101.0
aF101.0
aF101.0
aF101.0
aF101.0
aF101.0
aF101.0
aF100.0
aF100.0
aF100.0
aF100.0
aF100.0
aF100.0
aF100.00000381469727
aF100.0
aF100.0
aF100.0
aF100.00000381469727
aF100.0
aF100.0
aF100.0
aF100.0
aF100.00000762939453
aF100.0
aF100.0
aF99.999996185302734
aF100.00000762939453
aF100.00000381469727
aF100.00000762939453
aF100.00000762939453
aF100.00000762939453
aF100.00000762939453
aF100.00000762939453
aF100.00000762939453
aF100.00000762939453
aF100.00000762939453
aF100.00000762939453
aF100.00000762939453
aF100.00000762939453
aF100.00000762939453
aF100.00000762939453
aF100.00000762939453
aF100.00000762939453
aF100.00000762939453
aF100.00000762939453
aF100.00000762939453
aF100.00000762939453
aF100.00000762939453
aF100.00000762939453
aF100.00000762939453
aF100.00000762939453
aF100.00000762939453
aF100.00000762939453
aF100.00000762939453
aF100.00000762939453
aF100.00000762939453
aF100.00000762939453
aF100.00000762939453
aF100.00000762939453
aF100.00000762939453
aF100.00000762939453
aF100.00000762939453
aF100.00000762939453
aF100.00000762939453
aF100.00000762939453
aF100.00000762939453
aF100.00000762939453
aF100.00000762939453
asS'Sbase'
p22
F100.0
sS'A1'
p23
(dp24
S'S011'
p25
(dp26
S'Va'
p27
(lp28
F-0.67385661602020264
aF-0.67385661602020264
aF-0.67385661602020264
aF-0.67385661602020264
aF-0.67385661602020264
aF-0.67385661602020264
aF-0.67385661602020264
aF-0.67385661602020264
aF-0.67385661602020264
aF-0.67385661602020264
aF-0.67385661602020264
aF-0.67385661602020264
aF-0.67385661602020264
aF-0.67385661602020264
aF-0.67385661602020264
aF-0.67385661602020264
aF-0.67385661602020264
aF-0.67385661602020264
aF-0.67385661602020264
aF-0.67385661602020264
aF-0.67385661602020264
aF-0.67385661602020264
aF-0.67385661602020264
aF-0.67385661602020264
aF-0.67385661602020264
aF-0.67385661602020264
aF-0.67385661602020264
aF-0.67385661602020264
aF-0.67385661602020264
aF-0.67385661602020264
aF-0.67385661602020264
aF-0.67385661602020264
aF-0.67385661602020264
aF-0.67385661602020264
aF-0.67385661602020264
aF-0.67385661602020264
aF-0.67385661602020264
aF-0.67385661602020264
aF-0.67385661602020264
aF-0.67385661602020264
aF-0.67385661602020264
aF-0.67385661602020264
aF-0.67385661602020264
aF-0.67385661602020264
aF-0.67385661602020264
aF-0.67385661602020264
aF-0.67385661602020264
aF-0.67385661602020264
aF-0.67385661602020264
aF-0.67385661602020264
aF-0.67385661602020264
aF-0.67385661602020264
aF-0.67385661602020264
aF-0.67385661602020264
aF-0.67385661602020264
aF-0.67385661602020264
aF-0.67385661602020264
aF-0.67385661602020264
aF-0.67385661602020264
aF-0.67385661602020264
aF-0.67385661602020264
aF-0.67385661602020264
aF-0.67385661602020264
aF-0.67385661602020264
aF-0.67385661602020264
aF-0.67385661602020264
aF-0.67385661602020264
aF-0.67385661602020264
aF-0.67385661602020264
aF-0.67385661602020264
aF-0.67385661602020264
aF-0.67385661602020264
aF-0.67385661602020264
aF-0.67385661602020264
aF-0.67385661602020264
aF-0.67385661602020264
aF-0.67385661602020264
aF-0.67385661602020264
aF-0.67385661602020264
aF-0.67385661602020264
aF-0.67385661602020264
aF-0.67385661602020264
aF-0.67385661602020264
aF-0.67385661602020264
aF-0.67385661602020264
aF-0.67385661602020264
aF-0.67385661602020264
aF-0.67385661602020264
aF-0.67385661602020264
aF-0.67385661602020264
aF-0.67385661602020264
aF-0.67385661602020264
aF-0.67385661602020264
aF-0.67385661602020264
aF-0.67385661602020264
aF-0.67385661602020264
aF-0.67385661602020264
aF-0.67385661602020264
aF-0.67385661602020264
aF-0.67385661602020264
aF-0.67385661602020264
aF-0.67385661602020264
aF-0.67385661602020264
aF-0.67385661602020264
aF-0.67385661602020264
aF-0.67385661602020264
aF-0.67385661602020264
aF-0.67385661602020264
aF-0.67385661602020264
aF-0.67385661602020264
aF-0.67385661602020264
aF-0.67385661602020264
aF-0.67385661602020264
aF-0.67385661602020264
aF-0.67385661602020264
aF-0.67385661602020264
aF-0.67385661602020264
aF-0.67385661602020264
aF-0.67385661602020264
aF-0.67385661602020264
aF-0.67385661602020264
asS'Vm'
p29
(lp30
F1.0
aF1.0
aF1.0
aF1.0
aF1.0
aF1.0
aF1.0
aF1.0
aF1.0
aF1.0
aF1.0
aF1.0
aF1.0
aF1.0
aF1.0
aF1.0
aF1.0
aF1.0
aF1.0
aF1.0
aF1.0
aF1.0
aF1.0
aF1.0
aF1.0
aF1.0
aF1.0
aF1.0
aF1.0
aF1.0
aF1.0
aF1.0
aF1.0
aF1.0
aF1.0
aF1.0
aF1.0
aF1.0
aF1.0
aF1.0
aF1.0
aF1.0
aF1.0
aF1.0
aF1.0
aF1.0
aF1.0
aF1.0
aF1.0
aF1.0
aF1.0
aF1.0
aF1.0
aF1.0
aF1.0
aF1.0
aF1.0
aF1.0
aF1.0
aF1.0
aF1.0
aF1.0
aF1.0
aF1.0
aF1.0
aF1.0
aF1.0
aF1.0
aF1.0
aF1.0
aF1.0
aF1.0
aF1.0
aF1.0
aF1.0
aF1.0
aF1.0
aF1.0
aF1.0
aF1.0
aF1.0
aF1.0
aF1.0
aF1.0
aF1.0
aF1.0
aF1.0
aF1.0
aF1.0
aF1.0
aF1.0
aF1.0
aF1.0
aF1.0
aF1.0
aF1.0
aF1.0
aF1.0
aF1.0
aF1.0
aF1.0
aF1.0
aF1.0
aF1.0
aF1.0
aF1.0
aF1.0
aF1.0
aF1.0
aF1.0
aF1.0
aF1.0
aF1.0
aF1.0
aF1.0
aF1.0
aF1.0
aF1.0
aF1.0
aF1.0
aF1.0
asS'S0'
p31
(dp32
S'Hpu'
p33
F3.7000000000000002
sS'Pe'
p34
(lp35
F50.000007629394531
aF50.000007629394531
aF50.000007629394531
aF50.000007629394531
aF50.5
aF51.006759643554688
aF50.830986022949219
aF51.004623413085938
aF50.942813873291016
aF51.002357482910156
aF50.980640411376953
aF51.001064300537109
aF50.993442535400391
aF51.000446319580078
aF50.997779846191406
aF51.000179290771484
aF50.999248504638672
aF51.000064849853516
aF50.999744415283203
aF51.000022888183594
aF50.999908447265625
aF51.000011444091797
aF50.999969482421875
aF51.0
aF50.999992370605469
aF51.0
aF50.999992370605469
aF51.0
aF50.999992370605469
aF51.0
aF51.0
aF51.0
aF51.0
aF51.0
aF51.0
aF51.0
aF51.0
aF51.0
aF51.0
aF51.0
aF51.0
aF51.0
aF51.0
aF51.0
aF51.0
aF51.0
aF51.0
aF51.0
aF51.0
aF51.0
aF51.0
aF51.0
aF51.0
aF51.0
aF51.0
aF51.0
aF51.0
aF51.0
aF51.0
aF51.0
aF50.5
aF49.992988586425781
aF50.169097900390625
aF49.995319366455078
aF50.057201385498047
aF49.997642517089844
aF50.019359588623047
aF49.998939514160156
aF50.006557464599609
aF49.999553680419922
aF50.002223968505859
aF49.99981689453125
aF50.000755310058594
aF49.999927520751953
aF50.000255584716797
aF49.999980926513672
aF50.000083923339844
aF49.999992370605469
aF50.000022888183594
aF50.000007629394531
aF50.000007629394531
aF50.000007629394531
aF50.000007629394531
aF50.000007629394531
aF50.000007629394531
aF50.000007629394531
aF50.000007629394531
aF50.000007629394531
aF50.000007629394531
aF50.000007629394531
aF50.000007629394531
aF50.000007629394531
aF50.000007629394531
aF50.000007629394531
aF50.000007629394531
aF50.000007629394531
aF50.000007629394531
aF50.000007629394531
aF50.000007629394531
aF50.000007629394531
aF50.000007629394531
aF50.000007629394531
aF50.000007629394531
aF50.000007629394531
aF50.000007629394531
aF50.000007629394531
aF50.000007629394531
aF50.000007629394531
aF50.000007629394531
aF50.000007629394531
aF50.000007629394531
aF50.000007629394531
aF50.000007629394531
aF50.000007629394531
aF50.000007629394531
aF50.000007629394531
aF50.000007629394531
aF50.000007629394531
aF50.000007629394531
aF50.000007629394531
aF50.000007629394531
asS'Q'
p36
(lp37
F2.7583422660827637
aF2.7583422660827637
aF2.7583422660827637
aF2.7583422660827637
aF2.8140077590942383
aF2.8408050537109375
aF2.8314058780670166
aF2.840688943862915
aF2.8373348712921143
aF2.8405604362487793
aF2.8393874168395996
aF2.8404920101165771
aF2.8400411605834961
aF2.840458869934082
aF2.8403236865997314
aF2.8404452800750732
aF2.8403985500335693
aF2.8404374122619629
aF2.8404245376586914
aF2.8404409885406494
aF2.8404302597045898
aF2.8404374122619629
aF2.8404350280761719
aF2.8404407501220703
aF2.8404355049133301
aF2.8404359817504883
aF2.8404355049133301
aF2.8404359817504883
aF2.8404355049133301
aF2.8404407501220703
aF2.8404359817504883
aF2.8404359817504883
aF2.8404359817504883
aF2.8404359817504883
aF2.8404359817504883
aF2.8404359817504883
aF2.8404359817504883
aF2.8404359817504883
aF2.8404359817504883
aF2.8404359817504883
aF2.8404359817504883
aF2.8404359817504883
aF2.8404359817504883
aF2.8404359817504883
aF2.8404359817504883
aF2.8404359817504883
aF2.8404359817504883
aF2.8404359817504883
aF2.8404359817504883
aF2.8404359817504883
aF2.8404359817504883
aF2.8404359817504883
aF2.8404359817504883
aF2.8404359817504883
aF2.8404359817504883
aF2.8404359817504883
aF2.8404359817504883
aF2.8404359817504883
aF2.8404359817504883
aF2.8404359817504883
aF2.7845261096954346
aF2.7580106258392334
aF2.7671520709991455
aF2.7581272125244141
aF2.7613372802734375
aF2.7582261562347412
aF2.759373664855957
aF2.7582910060882568
aF2.7587323188781738
aF2.7583193778991699
aF2.7584531307220459
aF2.758336067199707
aF2.7583820819854736
aF2.7583403587341309
aF2.7583560943603516
aF2.7583394050598145
aF2.7583491802215576
aF2.7583456039428711
aF2.7583427429199219
aF2.7583422660827637
aF2.7583422660827637
aF2.7583422660827637
aF2.7583422660827637
aF2.7583422660827637
aF2.7583422660827637
aF2.7583422660827637
aF2.7583422660827637
aF2.7583422660827637
aF2.7583422660827637
aF2.7583422660827637
aF2.7583422660827637
aF2.7583422660827637
aF2.7583422660827637
aF2.7583422660827637
aF2.7583422660827637
aF2.7583422660827637
aF2.7583422660827637
aF2.7583422660827637
aF2.7583422660827637
aF2.7583422660827637
aF2.7583422660827637
aF2.7583422660827637
aF2.7583422660827637
aF2.7583422660827637
aF2.7583422660827637
aF2.7583422660827637
aF2.7583422660827637
aF2.7583422660827637
aF2.7583422660827637
aF2.7583422660827637
aF2.7583422660827637
aF2.7583422660827637
aF2.7583422660827637
aF2.7583422660827637
aF2.7583422660827637
aF2.7583422660827637
aF2.7583422660827637
aF2.7583422660827637
aF2.7583422660827637
aF2.7583422660827637
aF2.7583422660827637
asS'Pm'
p38
(lp39
F50.000007629394531
aF50.000007629394531
aF50.000007629394531
aF50.000007629394531
aF50.000007629394531
aF51.013521142907948
aF50.661972495969636
aF51.009251639560866
aF50.88563395248817
aF51.004720100985153
aF50.961276936714299
aF51.002135008340538
aF50.986882946412891
aF51.000901600670318
aF50.995555023322794
aF51.000363190019804
aF50.99849376803148
aF51.000140009559246
aF50.999490210051711
aF51.000050603399885
aF50.99982439927912
aF51.000016987506264
aF50.999937828799119
aF51.000007902957819
aF50.999978874905857
aF50.99999909925716
aF50.999994161596433
aF50.999999777400035
aF50.999994161519382
aF51.000001296011931
aF50.999994140201544
aF50.999997941430649
aF50.999999337604052
aF50.999999313476685
aF50.999999785730921
aF50.999999770954744
aF50.999999930786892
aF50.999999923551343
aF50.999999977677376
aF50.999999974472829
aF50.999999992812604
aF50.999999991472343
aF50.99999999769026
aF50.999999997150027
aF50.999999999259231
aF50.999999999047176
aF50.999999999762828
aF50.999999999681336
aF50.999999999924256
aF50.99999999989339
aF50.999999999975991
aF50.999999999964444
aF50.999999999992198
aF50.999999999988205
aF50.999999999997527
aF50.999999999995971
aF50.999999999999076
aF50.999999999998636
aF50.999999999999744
aF50.999999999999524
aF50.999999999999972
aF49.985979480094571
aF50.338196206784403
aF49.990635182434659
aF50.114401305591002
aF49.995283629322515
aF50.038715023907251
aF49.997882699873742
aF50.013112129235353
aF49.999106129904362
aF50.004441881332831
aF49.99963798159105
aF50.001509397231729
aF49.999856009348676
aF50.000511877688538
aF49.999944437116454
aF50.000173682543092
aF49.999986614175626
aF50.000056279930568
aF49.999994717221412
aF50.000015218632427
aF50.000007030863962
aF50.000006335167129
aF50.000008733426938
aF50.000007177236206
aF50.000008008488606
aF50.000007471515474
aF50.000007759600138
aF50.000007574297697
aF50.000007674127396
aF50.000007610176105
aF50.000007644766654
aF50.000007622694085
aF50.000007634678276
aF50.000007627059482
aF50.000007631211048
aF50.000007628581372
aF50.000007630019333
aF50.000007629111167
aF50.000007629609435
aF50.000007629295908
aF50.000007629468435
aF50.000007629360297
aF50.000007629419805
aF50.000007629382502
aF50.00000762940315
aF50.000007629390495
aF50.000007629397381
aF50.00000762939316
aF50.000007629395384
aF50.000007629394048
aF50.000007629394716
aF50.000007629394496
aF50.000007629394496
aF50.000007629394496
aF50.000007629394496
aF50.000007629394496
aF50.000007629394496
aF50.000007629394496
aF50.000007629394496
aF50.000007629394496
asS'St'
p40
(lp41
I1
aI1
aI1
aI1
aI1
aI1
aI1
aI1
aI1
aI1
aI1
aI1
aI1
aI1
aI1
aI1
aI1
aI1
aI1
aI1
aI1
aI1
aI1
aI1
aI1
aI1
aI1
aI1
aI1
aI1
aI1
aI1
aI1
aI1
aI1
aI1
aI1
aI1
aI1
aI1
aI1
aI1
aI1
aI1
aI1
aI1
aI1
aI1
aI1
aI1
aI1
aI1
aI1
aI1
aI1
aI1
aI1
aI1
aI1
aI1
aI1
aI1
aI1
aI1
aI1
aI1
aI1
aI1
aI1
aI1
aI1
aI1
aI1
aI1
aI1
aI1
aI1
aI1
aI1
aI1
aI1
aI1
aI1
aI1
aI1
aI1
aI1
aI1
aI1
aI1
aI1
aI1
aI1
aI1
aI1
aI1
aI1
aI1
aI1
aI1
aI1
aI1
aI1
aI1
aI1
aI1
aI1
aI1
aI1
aI1
aI1
aI1
aI1
aI1
aI1
aI1
aI1
aI1
aI1
aI1
aI1
asS'Pe_error'
p42
(lp43
F0.0
aF0.0
aF0.0
aF0.0
aF7.62939453125e-06
aF9.2789928629599672e-07
aF2.2503559904407666e-07
aF2.4066944988021532e-06
aF1.1956044332350757e-06
aF6.6023378764157314e-07
aF-3.8503684365309709e-06
aF3.2036331631957182e-06
aF-2.9695425780573714e-06
aF4.480755080749077e-06
aF-4.2418786421194454e-06
aF2.3042384142968331e-06
aF-3.5279715646652221e-06
aF5.1549261073091657e-06
aF-1.2176059769331005e-06
aF5.0616771574141239e-07
aF1.8450253023161167e-06
aF-4.8576872941907823e-06
aF-5.6802231540586945e-07
aF3.9514789094141634e-06
aF-4.8405011696672773e-06
aF-4.5037142371029404e-07
aF4.7101927478365724e-06
aF-2.0186486153761507e-06
aF4.7101542222094395e-06
aF-1.2593426674811781e-06
aF-4.8372478644864714e-06
aF-1.0292846752690821e-06
aF-3.3119797393510453e-07
aF-3.432616537679678e-07
aF-1.0713453946209484e-07
aF-1.1452262782540856e-07
aF-3.4606550514126866e-08
aF-3.8224328591240919e-08
aF-1.1161311874730018e-08
aF-1.2763585743869044e-08
aF-3.5936977837991435e-09
aF-4.2638319541765668e-09
aF-1.1548664247129636e-09
aF-1.4249863511395233e-09
aF-3.7038461186966742e-10
aF-4.7641179889978957e-10
aF-1.1858247717100312e-10
aF-1.5933210306684487e-10
aF-3.787192781601334e-11
aF-5.3304916036722716e-11
aF-1.2001066806988092e-11
aF-1.7777779248717707e-11
aF-3.90087961932295e-12
aF-5.8975047068088315e-12
aF-1.2363443602225743e-12
aF-2.0108359422010835e-12
aF-4.6185277824406512e-13
aF-6.8212102632969618e-13
aF-1.2789769243681803e-13
aF-2.3447910280083306e-13
aF-1.4210854715202004e-14
aF1.1536215041019204e-06
aF2.0300157643760031e-07
aF-1.775237748802283e-06
aF-7.3270254574708815e-07
aF-7.0242858640767736e-07
aF-2.0766694248663953e-06
aF3.743125347455134e-06
aF-1.3999819330479113e-06
aF-6.154677407721465e-07
aF-3.0278394476113135e-06
aF4.0036129078657723e-06
aF-6.1144272933688626e-07
aF4.8392238483074834e-07
aF3.5412747223517727e-07
aF-8.707955444720028e-06
aF6.7326289681091112e-06
aF9.3648234411602971e-07
aF5.2517816939712247e-06
aF-1.2178132458018354e-05
aF3.7946189479498571e-06
aF-2.2066139209186986e-06
aF-6.4711370129089119e-07
aF5.5201620341449598e-07
aF-2.2607915894923281e-07
aF1.8954703762119607e-07
aF-7.8939528691535088e-08
aF6.5102803148420207e-08
aF-2.7548416881018056e-08
aF2.2366428709119646e-08
aF-9.6092165335903701e-09
aF7.6860615649820829e-09
aF-3.3502232099635876e-09
aF2.6418760512569861e-09
aF-1.1675282962642086e-09
aF9.0825835741270566e-10
aF-4.0657965882928693e-10
aF3.1240432463164325e-10
aF-1.4168222151056398e-10
aF1.0745537792899995e-10
aF-4.9311665861750953e-11
aF3.6955327686882811e-11
aF-1.7116974504460813e-11
aF1.2640555269172182e-11
aF-6.0182969718880486e-12
aF4.3129944060638081e-12
aF-2.0179413695586845e-12
aF1.4281908988778014e-12
aF-6.8922645368729718e-13
aF4.2632564145606011e-13
aF-2.4158453015843406e-13
aF9.2370555648813024e-14
aF-2.1316282072803006e-14
aF-2.1316282072803006e-14
aF-2.1316282072803006e-14
aF-2.1316282072803006e-14
aF-2.1316282072803006e-14
aF-2.1316282072803006e-14
aF-2.1316282072803006e-14
aF-2.1316282072803006e-14
aF-2.1316282072803006e-14
asS'Pe_calc'
p44
(lp45
F50.000007629394531
aF50.000007629394531
aF50.000007629394531
aF50.000007629394531
aF50.500007629394531
aF51.006760571453974
aF50.830986247984818
aF51.004625819780436
aF50.942815068895449
aF51.002358143143944
aF50.980636561008517
aF51.001067504170273
aF50.993439565857813
aF51.000450800335159
aF50.997775604312764
aF51.000181595009899
aF50.999244976667107
aF51.000070004779623
aF50.999743197677226
aF51.000023394351309
aF50.999910292290927
aF51.000006586404503
aF50.99996891439956
aF51.000003951478909
aF50.999987530104299
aF50.999999549628576
aF50.999997080798217
aF50.999997981351385
aF50.999997080759691
aF50.999998740657333
aF50.999995162752136
aF50.999998970715325
aF50.999999668802026
aF50.999999656738346
aF50.999999892865461
aF50.999999885477372
aF50.999999965393449
aF50.999999961775671
aF50.999999988838688
aF50.999999987236414
aF50.999999996406302
aF50.999999995736168
aF50.999999998845134
aF50.999999998575014
aF50.999999999629615
aF50.999999999523588
aF50.999999999881418
aF50.999999999840668
aF50.999999999962128
aF50.999999999946695
aF50.999999999987999
aF50.999999999982222
aF50.999999999996099
aF50.999999999994102
aF50.999999999998764
aF50.999999999997989
aF50.999999999999538
aF50.999999999999318
aF50.999999999999872
aF50.999999999999766
aF50.499999999999986
aF49.992989740047285
aF50.169098103392201
aF49.995317591217329
aF50.057200652795501
aF49.997641814661257
aF50.019357511953622
aF49.998943257285504
aF50.006556064617676
aF49.999553064952181
aF50.002220940666412
aF49.999820898144158
aF50.000754698615864
aF49.999928004674338
aF50.000255938844269
aF49.999972218558227
aF50.000090655968812
aF49.999993307087813
aF50.000028139965288
aF49.999995451262073
aF50.000011424013479
aF50.00000542278061
aF50.00000698228083
aF50.000008181410735
aF50.000007403315372
aF50.000007818941569
aF50.000007550455003
aF50.000007694497334
aF50.000007601846114
aF50.00000765176096
aF50.000007619785315
aF50.000007637080593
aF50.000007626044308
aF50.000007632036407
aF50.000007628227003
aF50.00000763030279
aF50.000007628987952
aF50.000007629706936
aF50.000007629252849
aF50.000007629501987
aF50.00000762934522
aF50.000007629431487
aF50.000007629377414
aF50.000007629407172
aF50.000007629388513
aF50.000007629398844
aF50.000007629392513
aF50.000007629395959
aF50.000007629393842
aF50.000007629394958
aF50.00000762939429
aF50.000007629394624
aF50.00000762939451
aF50.00000762939451
aF50.00000762939451
aF50.00000762939451
aF50.00000762939451
aF50.00000762939451
aF50.00000762939451
aF50.00000762939451
aF50.00000762939451
asS'Slack'
p46
I1
sS'Mbase'
p47
F100.0
ssS'BusNum'
p48
I11
sS'BusName'
p49
S'11'
p50
ssS'Nload'
p51
I2
sS'Ngen'
p52
I2
sS'AreaNum'
p53
I1
sS'x002'
p54
(dp55
g29
(lp56
F0.99849432706832886
aF0.99849432706832886
aF0.99849432706832886
aF0.99849432706832886
aF0.99846386909484863
aF0.99846464395523071
aF0.99846446514129639
aF0.99846464395523071
aF0.99846458435058594
aF0.99846464395523071
aF0.99846458435058594
aF0.99846464395523071
aF0.99846464395523071
aF0.99846464395523071
aF0.99846464395523071
aF0.99846464395523071
aF0.99846464395523071
aF0.99846464395523071
aF0.99846464395523071
aF0.99846464395523071
aF0.99846464395523071
aF0.99846464395523071
aF0.99846464395523071
aF0.99846464395523071
aF0.99846464395523071
aF0.99846464395523071
aF0.99846464395523071
aF0.99846464395523071
aF0.99846464395523071
aF0.99846464395523071
aF0.99846464395523071
aF0.99846464395523071
aF0.99846464395523071
aF0.99846464395523071
aF0.99846464395523071
aF0.99846464395523071
aF0.99846464395523071
aF0.99846464395523071
aF0.99846464395523071
aF0.99846464395523071
aF0.99846464395523071
aF0.99846464395523071
aF0.99846464395523071
aF0.99846464395523071
aF0.99846464395523071
aF0.99846464395523071
aF0.99846464395523071
aF0.99846464395523071
aF0.99846464395523071
aF0.99846464395523071
aF0.99846464395523071
aF0.99846464395523071
aF0.99846464395523071
aF0.99846464395523071
aF0.99846464395523071
aF0.99846464395523071
aF0.99846464395523071
aF0.99846464395523071
aF0.99846464395523071
aF0.99846464395523071
aF0.99849498271942139
aF0.99849432706832886
aF0.99849456548690796
aF0.99849432706832886
aF0.99849438667297363
aF0.99849432706832886
aF0.99849432706832886
aF0.99849432706832886
aF0.99849432706832886
aF0.99849432706832886
aF0.99849432706832886
aF0.99849432706832886
aF0.99849432706832886
aF0.99849432706832886
aF0.99849432706832886
aF0.99849432706832886
aF0.99849432706832886
aF0.99849432706832886
aF0.99849432706832886
aF0.99849432706832886
aF0.99849432706832886
aF0.99849432706832886
aF0.99849432706832886
aF0.99849432706832886
aF0.99849432706832886
aF0.99849432706832886
aF0.99849432706832886
aF0.99849432706832886
aF0.99849432706832886
aF0.99849432706832886
aF0.99849432706832886
aF0.99849432706832886
aF0.99849432706832886
aF0.99849432706832886
aF0.99849432706832886
aF0.99849432706832886
aF0.99849432706832886
aF0.99849432706832886
aF0.99849432706832886
aF0.99849432706832886
aF0.99849432706832886
aF0.99849432706832886
aF0.99849432706832886
aF0.99849432706832886
aF0.99849432706832886
aF0.99849432706832886
aF0.99849432706832886
aF0.99849432706832886
aF0.99849432706832886
aF0.99849432706832886
aF0.99849432706832886
aF0.99849432706832886
aF0.99849432706832886
aF0.99849432706832886
aF0.99849432706832886
aF0.99849432706832886
aF0.99849432706832886
aF0.99849432706832886
aF0.99849432706832886
aF0.99849432706832886
aF0.99849432706832886
asg49
S'2'
p57
sg48
I2
sg27
(lp58
F-0.72395294904708862
aF-0.72395294904708862
aF-0.72395294904708862
aF-0.72395294904708862
aF-0.72445589303970337
aF-0.72499805688858032
aF-0.72481000423431396
aF-0.72499573230743408
aF-0.72492963075637817
aF-0.72499334812164307
aF-0.72497010231018066
aF-0.72499197721481323
aF-0.724983811378479
aF-0.72499126195907593
aF-0.72498846054077148
aF-0.72499102354049683
aF-0.72499001026153564
aF-0.72499090433120728
aF-0.72499054670333862
aF-0.7249908447265625
aF-0.72499072551727295
aF-0.7249908447265625
aF-0.72499078512191772
aF-0.72499078512191772
aF-0.72499078512191772
aF-0.72499078512191772
aF-0.72499078512191772
aF-0.72499078512191772
aF-0.72499078512191772
aF-0.72499078512191772
aF-0.72499078512191772
aF-0.72499078512191772
aF-0.72499078512191772
aF-0.72499078512191772
aF-0.72499078512191772
aF-0.72499078512191772
aF-0.72499078512191772
aF-0.72499078512191772
aF-0.72499078512191772
aF-0.72499078512191772
aF-0.72499078512191772
aF-0.72499078512191772
aF-0.72499078512191772
aF-0.72499078512191772
aF-0.72499078512191772
aF-0.72499078512191772
aF-0.72499078512191772
aF-0.72499078512191772
aF-0.72499078512191772
aF-0.72499078512191772
aF-0.72499078512191772
aF-0.72499078512191772
aF-0.72499078512191772
aF-0.72499078512191772
aF-0.72499078512191772
aF-0.72499078512191772
aF-0.72499078512191772
aF-0.72499078512191772
aF-0.72499078512191772
aF-0.72499078512191772
aF-0.72448784112930298
aF-0.7239454984664917
aF-0.72413384914398193
aF-0.72394794225692749
aF-0.72401416301727295
aF-0.72395044565200806
aF-0.72397369146347046
aF-0.72395181655883789
aF-0.72395998239517212
aF-0.72395247220993042
aF-0.72395533323287964
aF-0.7239527702331543
aF-0.72395378351211548
aF-0.72395288944244385
aF-0.7239532470703125
aF-0.72395294904708862
aF-0.72395306825637817
aF-0.72395294904708862
aF-0.7239530086517334
aF-0.72395294904708862
aF-0.72395294904708862
aF-0.72395294904708862
aF-0.72395294904708862
aF-0.72395294904708862
aF-0.72395294904708862
aF-0.72395294904708862
aF-0.72395294904708862
aF-0.72395294904708862
aF-0.72395294904708862
aF-0.72395294904708862
aF-0.72395294904708862
aF-0.72395294904708862
aF-0.72395294904708862
aF-0.72395294904708862
aF-0.72395294904708862
aF-0.72395294904708862
aF-0.72395294904708862
aF-0.72395294904708862
aF-0.72395294904708862
aF-0.72395294904708862
aF-0.72395294904708862
aF-0.72395294904708862
aF-0.72395294904708862
aF-0.72395294904708862
aF-0.72395294904708862
aF-0.72395294904708862
aF-0.72395294904708862
aF-0.72395294904708862
aF-0.72395294904708862
aF-0.72395294904708862
aF-0.72395294904708862
aF-0.72395294904708862
aF-0.72395294904708862
aF-0.72395294904708862
aF-0.72395294904708862
aF-0.72395294904708862
aF-0.72395294904708862
aF-0.72395294904708862
aF-0.72395294904708862
aF-0.72395294904708862
aF-0.72395294904708862
assS'L003'
p59
(dp60
S'L0'
p61
(dp62
S'P'
p63
(lp64
F100.0
aF100.0
aF100.0
aF100.0
aF101.0
aF101.0
aF101.0
aF101.0
aF101.0
aF101.0
aF101.0
aF101.0
aF101.0
aF101.0
aF101.0
aF101.0
aF101.0
aF101.0
aF101.0
aF101.0
aF101.0
aF101.0
aF101.0
aF101.0
aF101.0
aF101.0
aF101.0
aF101.0
aF101.0
aF101.0
aF101.0
aF101.0
aF101.0
aF101.0
aF101.0
aF101.0
aF101.0
aF101.0
aF101.0
aF101.0
aF101.0
aF101.0
aF101.0
aF101.0
aF101.0
aF101.0
aF101.0
aF101.0
aF101.0
aF101.0
aF101.0
aF101.0
aF101.0
aF101.0
aF101.0
aF101.0
aF101.0
aF101.0
aF101.0
aF101.0
aF100.0
aF100.0
aF100.0
aF100.0
aF100.0
aF100.0
aF100.0
aF100.0
aF100.0
aF100.0
aF100.0
aF100.0
aF100.0
aF100.0
aF100.0
aF100.0
aF100.0
aF100.0
aF100.0
aF100.0
aF100.0
aF100.0
aF100.0
aF100.0
aF100.0
aF100.0
aF100.0
aF100.0
aF100.0
aF100.0
aF100.0
aF100.0
aF100.0
aF100.0
aF100.0
aF100.0
aF100.0
aF100.0
aF100.0
aF100.0
aF100.0
aF100.0
aF100.0
aF100.0
aF100.0
aF100.0
aF100.0
aF100.0
aF100.0
aF100.0
aF100.0
aF100.0
aF100.0
aF100.0
aF100.0
aF100.0
aF100.0
aF100.0
aF100.0
aF100.0
aF100.0
asS'St'
p65
(lp66
I1
aI1
aI1
aI1
aI1
aI1
aI1
aI1
aI1
aI1
aI1
aI1
aI1
aI1
aI1
aI1
aI1
aI1
aI1
aI1
aI1
aI1
aI1
aI1
aI1
aI1
aI1
aI1
aI1
aI1
aI1
aI1
aI1
aI1
aI1
aI1
aI1
aI1
aI1
aI1
aI1
aI1
aI1
aI1
aI1
aI1
aI1
aI1
aI1
aI1
aI1
aI1
aI1
aI1
aI1
aI1
aI1
aI1
aI1
aI1
aI1
aI1
aI1
aI1
aI1
aI1
aI1
aI1
aI1
aI1
aI1
aI1
aI1
aI1
aI1
aI1
aI1
aI1
aI1
aI1
aI1
aI1
aI1
aI1
aI1
aI1
aI1
aI1
aI1
aI1
aI1
aI1
aI1
aI1
aI1
aI1
aI1
aI1
aI1
aI1
aI1
aI1
aI1
aI1
aI1
aI1
aI1
aI1
aI1
aI1
aI1
aI1
aI1
aI1
aI1
aI1
aI1
aI1
aI1
aI1
aI1
asS'Q'
p67
(lp68
F0.0
aF0.0
aF0.0
aF0.0
aF0.0
aF0.0
aF0.0
aF0.0
aF0.0
aF0.0
aF0.0
aF0.0
aF0.0
aF0.0
aF0.0
aF0.0
aF0.0
aF0.0
aF0.0
aF0.0
aF0.0
aF0.0
aF0.0
aF0.0
aF0.0
aF0.0
aF0.0
aF0.0
aF0.0
aF0.0
aF0.0
aF0.0
aF0.0
aF0.0
aF0.0
aF0.0
aF0.0
aF0.0
aF0.0
aF0.0
aF0.0
aF0.0
aF0.0
aF0.0
aF0.0
aF0.0
aF0.0
aF0.0
aF0.0
aF0.0
aF0.0
aF0.0
aF0.0
aF0.0
aF0.0
aF0.0
aF0.0
aF0.0
aF0.0
aF0.0
aF0.0
aF0.0
aF0.0
aF0.0
aF0.0
aF0.0
aF0.0
aF0.0
aF0.0
aF0.0
aF0.0
aF0.0
aF0.0
aF0.0
aF0.0
aF0.0
aF0.0
aF0.0
aF0.0
aF0.0
aF0.0
aF0.0
aF0.0
aF0.0
aF0.0
aF0.0
aF0.0
aF0.0
aF0.0
aF0.0
aF0.0
aF0.0
aF0.0
aF0.0
aF0.0
aF0.0
aF0.0
aF0.0
aF0.0
aF0.0
aF0.0
aF0.0
aF0.0
aF0.0
aF0.0
aF0.0
aF0.0
aF0.0
aF0.0
aF0.0
aF0.0
aF0.0
aF0.0
aF0.0
aF0.0
aF0.0
aF0.0
aF0.0
aF0.0
aF0.0
aF0.0
assg27
(lp69
F-0.72896814346313477
aF-0.72896814346313477
aF-0.72896814346313477
aF-0.72896814346313477
aF-0.72952151298522949
aF-0.73004674911499023
aF-0.72986453771591187
aF-0.73004454374313354
aF-0.72998046875
aF-0.73004215955734253
aF-0.73001968860626221
aF-0.73004084825515747
aF-0.73003292083740234
aF-0.73004019260406494
aF-0.73003745079040527
aF-0.73003989458084106
aF-0.73003894090652466
aF-0.73003977537155151
aF-0.73003947734832764
aF-0.73003977537155151
aF-0.73003965616226196
aF-0.73003971576690674
aF-0.73003971576690674
aF-0.73003971576690674
aF-0.73003971576690674
aF-0.73003971576690674
aF-0.73003971576690674
aF-0.73003971576690674
aF-0.73003971576690674
aF-0.73003971576690674
aF-0.73003971576690674
aF-0.73003971576690674
aF-0.73003971576690674
aF-0.73003971576690674
aF-0.73003971576690674
aF-0.73003971576690674
aF-0.73003971576690674
aF-0.73003971576690674
aF-0.73003971576690674
aF-0.73003971576690674
aF-0.73003971576690674
aF-0.73003971576690674
aF-0.73003971576690674
aF-0.73003971576690674
aF-0.73003971576690674
aF-0.73003971576690674
aF-0.73003971576690674
aF-0.73003971576690674
aF-0.73003971576690674
aF-0.73003971576690674
aF-0.73003971576690674
aF-0.73003971576690674
aF-0.73003971576690674
aF-0.73003971576690674
aF-0.73003971576690674
aF-0.73003971576690674
aF-0.73003971576690674
aF-0.73003971576690674
aF-0.73003971576690674
aF-0.73003971576690674
aF-0.72948628664016724
aF-0.72896087169647217
aF-0.72914338111877441
aF-0.72896331548690796
aF-0.72902745008468628
aF-0.72896569967269897
aF-0.72898823022842407
aF-0.72896707057952881
aF-0.72897493839263916
aF-0.72896766662597656
aF-0.72897046804428101
aF-0.72896796464920044
aF-0.72896891832351685
aF-0.72896808385848999
aF-0.72896838188171387
aF-0.72896814346313477
aF-0.72896820306777954
aF-0.72896814346313477
aF-0.72896820306777954
aF-0.72896814346313477
aF-0.72896814346313477
aF-0.72896814346313477
aF-0.72896814346313477
aF-0.72896814346313477
aF-0.72896814346313477
aF-0.72896814346313477
aF-0.72896814346313477
aF-0.72896814346313477
aF-0.72896814346313477
aF-0.72896814346313477
aF-0.72896814346313477
aF-0.72896814346313477
aF-0.72896814346313477
aF-0.72896814346313477
aF-0.72896814346313477
aF-0.72896814346313477
aF-0.72896814346313477
aF-0.72896814346313477
aF-0.72896814346313477
aF-0.72896814346313477
aF-0.72896814346313477
aF-0.72896814346313477
aF-0.72896814346313477
aF-0.72896814346313477
aF-0.72896814346313477
aF-0.72896814346313477
aF-0.72896814346313477
aF-0.72896814346313477
aF-0.72896814346313477
aF-0.72896814346313477
aF-0.72896814346313477
aF-0.72896814346313477
aF-0.72896814346313477
aF-0.72896814346313477
aF-0.72896814346313477
aF-0.72896814346313477
aF-0.72896814346313477
aF-0.72896814346313477
aF-0.72896814346313477
aF-0.72896814346313477
aF-0.72896814346313477
asg29
(lp70
F0.99848175048828125
aF0.99848175048828125
aF0.99848175048828125
aF0.99848175048828125
aF0.9984511137008667
aF0.99845099449157715
aF0.99845105409622192
aF0.99845099449157715
aF0.99845099449157715
aF0.99845099449157715
aF0.99845099449157715
aF0.99845099449157715
aF0.99845099449157715
aF0.99845099449157715
aF0.99845099449157715
aF0.99845099449157715
aF0.99845099449157715
aF0.99845099449157715
aF0.99845099449157715
aF0.99845099449157715
aF0.99845099449157715
aF0.99845099449157715
aF0.99845099449157715
aF0.99845099449157715
aF0.99845099449157715
aF0.99845099449157715
aF0.99845099449157715
aF0.99845099449157715
aF0.99845099449157715
aF0.99845099449157715
aF0.99845099449157715
aF0.99845099449157715
aF0.99845099449157715
aF0.99845099449157715
aF0.99845099449157715
aF0.99845099449157715
aF0.99845099449157715
aF0.99845099449157715
aF0.99845099449157715
aF0.99845099449157715
aF0.99845099449157715
aF0.99845099449157715
aF0.99845099449157715
aF0.99845099449157715
aF0.99845099449157715
aF0.99845099449157715
aF0.99845099449157715
aF0.99845099449157715
aF0.99845099449157715
aF0.99845099449157715
aF0.99845099449157715
aF0.99845099449157715
aF0.99845099449157715
aF0.99845099449157715
aF0.99845099449157715
aF0.99845099449157715
aF0.99845099449157715
aF0.99845099449157715
aF0.99845099449157715
aF0.99845099449157715
aF0.99848157167434692
aF0.99848175048828125
aF0.99848175048828125
aF0.99848175048828125
aF0.99848175048828125
aF0.99848175048828125
aF0.99848175048828125
aF0.99848175048828125
aF0.99848175048828125
aF0.99848175048828125
aF0.99848175048828125
aF0.99848175048828125
aF0.99848175048828125
aF0.99848175048828125
aF0.99848175048828125
aF0.99848175048828125
aF0.99848175048828125
aF0.99848175048828125
aF0.99848175048828125
aF0.99848175048828125
aF0.99848175048828125
aF0.99848175048828125
aF0.99848175048828125
aF0.99848175048828125
aF0.99848175048828125
aF0.99848175048828125
aF0.99848175048828125
aF0.99848175048828125
aF0.99848175048828125
aF0.99848175048828125
aF0.99848175048828125
aF0.99848175048828125
aF0.99848175048828125
aF0.99848175048828125
aF0.99848175048828125
aF0.99848175048828125
aF0.99848175048828125
aF0.99848175048828125
aF0.99848175048828125
aF0.99848175048828125
aF0.99848175048828125
aF0.99848175048828125
aF0.99848175048828125
aF0.99848175048828125
aF0.99848175048828125
aF0.99848175048828125
aF0.99848175048828125
aF0.99848175048828125
aF0.99848175048828125
aF0.99848175048828125
aF0.99848175048828125
aF0.99848175048828125
aF0.99848175048828125
aF0.99848175048828125
aF0.99848175048828125
aF0.99848175048828125
aF0.99848175048828125
aF0.99848175048828125
aF0.99848175048828125
aF0.99848175048828125
aF0.99848175048828125
asS'L1'
p71
(dp72
g63
(lp73
F20.0
aF20.0
aF20.0
aF20.0
aF20.0
aF20.0
aF20.0
aF20.0
aF20.0
aF20.0
aF20.0
aF20.0
aF20.0
aF20.0
aF20.0
aF20.0
aF20.0
aF20.0
aF20.0
aF20.0
aF20.0
aF20.0
aF20.0
aF20.0
aF20.0
aF20.0
aF20.0
aF20.0
aF20.0
aF20.0
aF20.0
aF20.0
aF20.0
aF20.0
aF20.0
aF20.0
aF20.0
aF20.0
aF20.0
aF20.0
aF20.0
aF20.0
aF20.0
aF20.0
aF20.0
aF20.0
aF20.0
aF20.0
aF20.0
aF20.0
aF20.0
aF20.0
aF20.0
aF20.0
aF20.0
aF20.0
aF20.0
aF20.0
aF20.0
aF20.0
aF20.0
aF20.0
aF20.0
aF20.0
aF20.0
aF20.0
aF20.0
aF20.0
aF20.0
aF20.0
aF20.0
aF20.0
aF20.0
aF20.0
aF20.0
aF20.0
aF20.0
aF20.0
aF20.0
aF20.0
aF20.0
aF20.0
aF20.0
aF20.0
aF20.0
aF20.0
aF20.0
aF20.0
aF20.0
aF20.0
aF20.0
aF20.0
aF20.0
aF20.0
aF20.0
aF20.0
aF20.0
aF20.0
aF20.0
aF20.0
aF20.0
aF20.0
aF20.0
aF20.0
aF20.0
aF20.0
aF20.0
aF20.0
aF20.0
aF20.0
aF20.0
aF20.0
aF20.0
aF20.0
aF20.0
aF20.0
aF20.0
aF20.0
aF20.0
aF20.0
aF20.0
asg65
(lp74
I0
aI0
aI0
aI0
aI0
aI0
aI0
aI0
aI0
aI0
aI0
aI0
aI0
aI0
aI0
aI0
aI0
aI0
aI0
aI0
aI0
aI0
aI0
aI0
aI0
aI0
aI0
aI0
aI0
aI0
aI0
aI0
aI0
aI0
aI0
aI0
aI0
aI0
aI0
aI0
aI0
aI0
aI0
aI0
aI0
aI0
aI0
aI0
aI0
aI0
aI0
aI0
aI0
aI0
aI0
aI0
aI0
aI0
aI0
aI0
aI0
aI0
aI0
aI0
aI0
aI0
aI0
aI0
aI0
aI0
aI0
aI0
aI0
aI0
aI0
aI0
aI0
aI0
aI0
aI0
aI0
aI0
aI0
aI0
aI0
aI0
aI0
aI0
aI0
aI0
aI0
aI0
aI0
aI0
aI0
aI0
aI0
aI0
aI0
aI0
aI0
aI0
aI0
aI0
aI0
aI0
aI0
aI0
aI0
aI0
aI0
aI0
aI0
aI0
aI0
aI0
aI0
aI0
aI0
aI0
aI0
asg67
(lp75
F0.0
aF0.0
aF0.0
aF0.0
aF0.0
aF0.0
aF0.0
aF0.0
aF0.0
aF0.0
aF0.0
aF0.0
aF0.0
aF0.0
aF0.0
aF0.0
aF0.0
aF0.0
aF0.0
aF0.0
aF0.0
aF0.0
aF0.0
aF0.0
aF0.0
aF0.0
aF0.0
aF0.0
aF0.0
aF0.0
aF0.0
aF0.0
aF0.0
aF0.0
aF0.0
aF0.0
aF0.0
aF0.0
aF0.0
aF0.0
aF0.0
aF0.0
aF0.0
aF0.0
aF0.0
aF0.0
aF0.0
aF0.0
aF0.0
aF0.0
aF0.0
aF0.0
aF0.0
aF0.0
aF0.0
aF0.0
aF0.0
aF0.0
aF0.0
aF0.0
aF0.0
aF0.0
aF0.0
aF0.0
aF0.0
aF0.0
aF0.0
aF0.0
aF0.0
aF0.0
aF0.0
aF0.0
aF0.0
aF0.0
aF0.0
aF0.0
aF0.0
aF0.0
aF0.0
aF0.0
aF0.0
aF0.0
aF0.0
aF0.0
aF0.0
aF0.0
aF0.0
aF0.0
aF0.0
aF0.0
aF0.0
aF0.0
aF0.0
aF0.0
aF0.0
aF0.0
aF0.0
aF0.0
aF0.0
aF0.0
aF0.0
aF0.0
aF0.0
aF0.0
aF0.0
aF0.0
aF0.0
aF0.0
aF0.0
aF0.0
aF0.0
aF0.0
aF0.0
aF0.0
aF0.0
aF0.0
aF0.0
aF0.0
aF0.0
aF0.0
aF0.0
assg48
I3
sg49
S'3'
p76
ssS'G021'
p77
(dp78
g27
(lp79
F-0.67385661602020264
aF-0.67385661602020264
aF-0.67385661602020264
aF-0.67385661602020264
aF-0.67385661602020264
aF-0.67490696907043457
aF-0.67454266548156738
aF-0.67490255832672119
aF-0.6747744083404541
aF-0.67489784955978394
aF-0.67485284805297852
aF-0.67489516735076904
aF-0.67487937211990356
aF-0.67489391565322876
aF-0.67488837242126465
aF-0.67489331960678101
aF-0.67489141225814819
aF-0.6748930811882019
aF-0.67489242553710938
aF-0.67489302158355713
aF-0.67489278316497803
aF-0.67489296197891235
aF-0.67489290237426758
aF-0.67489296197891235
aF-0.67489296197891235
aF-0.67489296197891235
aF-0.67489296197891235
aF-0.67489296197891235
aF-0.67489296197891235
aF-0.67489296197891235
aF-0.67489296197891235
aF-0.67489296197891235
aF-0.67489296197891235
aF-0.67489296197891235
aF-0.67489296197891235
aF-0.67489296197891235
aF-0.67489296197891235
aF-0.67489296197891235
aF-0.67489296197891235
aF-0.67489296197891235
aF-0.67489296197891235
aF-0.67489296197891235
aF-0.67489296197891235
aF-0.67489296197891235
aF-0.67489296197891235
aF-0.67489296197891235
aF-0.67489296197891235
aF-0.67489296197891235
aF-0.67489296197891235
aF-0.67489296197891235
aF-0.67489296197891235
aF-0.67489296197891235
aF-0.67489296197891235
aF-0.67489296197891235
aF-0.67489296197891235
aF-0.67489296197891235
aF-0.67489296197891235
aF-0.67489296197891235
aF-0.67489296197891235
aF-0.67489296197891235
aF-0.67489290237426758
aF-0.67384207248687744
aF-0.67420709133148193
aF-0.67384690046310425
aF-0.67397516965866089
aF-0.67385172843933105
aF-0.67389672994613647
aF-0.67385441064834595
aF-0.67387020587921143
aF-0.67385566234588623
aF-0.67386120557785034
aF-0.67385625839233398
aF-0.6738581657409668
aF-0.67385649681091309
aF-0.67385715246200562
aF-0.67385655641555786
aF-0.67385679483413696
aF-0.67385661602020264
aF-0.67385667562484741
aF-0.67385661602020264
aF-0.67385661602020264
aF-0.67385661602020264
aF-0.67385661602020264
aF-0.67385661602020264
aF-0.67385661602020264
aF-0.67385661602020264
aF-0.67385661602020264
aF-0.67385661602020264
aF-0.67385661602020264
aF-0.67385661602020264
aF-0.67385661602020264
aF-0.67385661602020264
aF-0.67385661602020264
aF-0.67385661602020264
aF-0.67385661602020264
aF-0.67385661602020264
aF-0.67385661602020264
aF-0.67385661602020264
aF-0.67385661602020264
aF-0.67385661602020264
aF-0.67385661602020264
aF-0.67385661602020264
aF-0.67385661602020264
aF-0.67385661602020264
aF-0.67385661602020264
aF-0.67385661602020264
aF-0.67385661602020264
aF-0.67385661602020264
aF-0.67385661602020264
aF-0.67385661602020264
aF-0.67385661602020264
aF-0.67385661602020264
aF-0.67385661602020264
aF-0.67385661602020264
aF-0.67385661602020264
aF-0.67385661602020264
aF-0.67385661602020264
aF-0.67385661602020264
aF-0.67385661602020264
aF-0.67385661602020264
aF-0.67385661602020264
asg29
(lp80
F1.0
aF1.0
aF1.0
aF1.0
aF1.0
aF1.0
aF1.0
aF1.0
aF1.0
aF1.0
aF1.0
aF1.0
aF1.0
aF1.0
aF1.0
aF1.0
aF1.0
aF1.0
aF1.0
aF1.0
aF1.0
aF1.0
aF1.0
aF1.0
aF1.0
aF1.0
aF1.0
aF1.0
aF1.0
aF1.0
aF1.0
aF1.0
aF1.0
aF1.0
aF1.0
aF1.0
aF1.0
aF1.0
aF1.0
aF1.0
aF1.0
aF1.0
aF1.0
aF1.0
aF1.0
aF1.0
aF1.0
aF1.0
aF1.0
aF1.0
aF1.0
aF1.0
aF1.0
aF1.0
aF1.0
aF1.0
aF1.0
aF1.0
aF1.0
aF1.0
aF1.0
aF1.0
aF1.0
aF1.0
aF1.0
aF1.0
aF1.0
aF1.0
aF1.0
aF1.0
aF1.0
aF1.0
aF1.0
aF1.0
aF1.0
aF1.0
aF1.0
aF1.0
aF1.0
aF1.0
aF1.0
aF1.0
aF1.0
aF1.0
aF1.0
aF1.0
aF1.0
aF1.0
aF1.0
aF1.0
aF1.0
aF1.0
aF1.0
aF1.0
aF1.0
aF1.0
aF1.0
aF1.0
aF1.0
aF1.0
aF1.0
aF1.0
aF1.0
aF1.0
aF1.0
aF1.0
aF1.0
aF1.0
aF1.0
aF1.0
aF1.0
aF1.0
aF1.0
aF1.0
aF1.0
aF1.0
aF1.0
aF1.0
aF1.0
aF1.0
aF1.0
asg48
I21
sS'G0'
p81
(dp82
S'Pe'
p83
(lp84
F50.0
aF50.0
aF50.0
aF50.0
aF50.5
aF49.993240356445312
aF50.169013977050781
aF49.995372772216797
aF50.057182312011719
aF49.997638702392578
aF50.019359588623047
aF49.998931884765625
aF50.006557464599609
aF49.999549865722656
aF50.002220153808594
aF49.99981689453125
aF50.000751495361328
aF49.999931335449219
aF50.000251770019531
aF49.999973297119141
aF50.000087738037109
aF49.999988555908203
aF50.000030517578125
aF49.999996185302734
aF50.000007629394531
aF50.0
aF50.000003814697266
aF50.0
aF50.000003814697266
aF49.999996185302734
aF50.0
aF50.0
aF50.0
aF50.0
aF50.0
aF50.0
aF50.0
aF50.0
aF50.0
aF50.0
aF50.0
aF50.0
aF50.0
aF50.0
aF50.0
aF50.0
aF50.0
aF50.0
aF50.0
aF50.0
aF50.0
aF50.0
aF50.0
aF50.0
aF50.0
aF50.0
aF50.0
aF50.0
aF50.0
aF50.0
aF49.5
aF50.007011413574219
aF49.830902099609375
aF50.004680633544922
aF49.942798614501953
aF50.002357482910156
aF49.980644226074219
aF50.001060485839844
aF49.993442535400391
aF50.000446319580078
aF49.997779846191406
aF50.00018310546875
aF49.999244689941406
aF50.000072479248047
aF49.999744415283203
aF50.000026702880859
aF49.999916076660156
aF50.000007629394531
aF49.999973297119141
aF50.0
aF49.999996185302734
aF50.0
aF50.0
aF50.0
aF50.0
aF50.0
aF50.0
aF50.0
aF50.0
aF50.0
aF50.0
aF50.0
aF50.0
aF50.0
aF50.0
aF50.0
aF50.0
aF50.0
aF50.0
aF50.0
aF50.0
aF50.0
aF50.0
aF50.0
aF50.0
aF50.0
aF50.0
aF50.0
aF50.0
aF50.0
aF50.0
aF50.0
aF50.0
aF50.0
aF50.0
aF50.0
aF50.0
aF50.0
aF50.0
aF50.0
aF50.0
asS'Hpu'
p85
F3.7000000000000002
sS'Slack'
p86
I0
sS'Mbase'
p87
F100.0
sS'St'
p88
(lp89
I1
aI1
aI1
aI1
aI1
aI1
aI1
aI1
aI1
aI1
aI1
aI1
aI1
aI1
aI1
aI1
aI1
aI1
aI1
aI1
aI1
aI1
aI1
aI1
aI1
aI1
aI1
aI1
aI1
aI1
aI1
aI1
aI1
aI1
aI1
aI1
aI1
aI1
aI1
aI1
aI1
aI1
aI1
aI1
aI1
aI1
aI1
aI1
aI1
aI1
aI1
aI1
aI1
aI1
aI1
aI1
aI1
aI1
aI1
aI1
aI1
aI1
aI1
aI1
aI1
aI1
aI1
aI1
aI1
aI1
aI1
aI1
aI1
aI1
aI1
aI1
aI1
aI1
aI1
aI1
aI1
aI1
aI1
aI1
aI1
aI1
aI1
aI1
aI1
aI1
aI1
aI1
aI1
aI1
aI1
aI1
aI1
aI1
aI1
aI1
aI1
aI1
aI1
aI1
aI1
aI1
aI1
aI1
aI1
aI1
aI1
aI1
aI1
aI1
aI1
aI1
aI1
aI1
aI1
aI1
aI1
asS'Pm'
p90
(lp91
F50.0
aF50.0
aF50.0
aF50.0
aF50.0
aF50.0
aF50.0
aF50.0
aF50.0
aF50.0
aF50.0
aF50.0
aF50.0
aF50.0
aF50.0
aF50.0
aF50.0
aF50.0
aF50.0
aF50.0
aF50.0
aF50.0
aF50.0
aF50.0
aF50.0
aF50.0
aF50.0
aF50.0
aF50.0
aF50.0
aF50.0
aF50.0
aF50.0
aF50.0
aF50.0
aF50.0
aF50.0
aF50.0
aF50.0
aF50.0
aF50.0
aF50.0
aF50.0
aF50.0
aF50.0
aF50.0
aF50.0
aF50.0
aF50.0
aF50.0
aF50.0
aF50.0
aF50.0
aF50.0
aF50.0
aF50.0
aF50.0
aF50.0
aF50.0
aF50.0
aF50.0
aF50.0
aF50.0
aF50.0
aF50.0
aF50.0
aF50.0
aF50.0
aF50.0
aF50.0
aF50.0
aF50.0
aF50.0
aF50.0
aF50.0
aF50.0
aF50.0
aF50.0
aF50.0
aF50.0
aF50.0
aF50.0
aF50.0
aF50.0
aF50.0
aF50.0
aF50.0
aF50.0
aF50.0
aF50.0
aF50.0
aF50.0
aF50.0
aF50.0
aF50.0
aF50.0
aF50.0
aF50.0
aF50.0
aF50.0
aF50.0
aF50.0
aF50.0
aF50.0
aF50.0
aF50.0
aF50.0
aF50.0
aF50.0
aF50.0
aF50.0
aF50.0
aF50.0
aF50.0
aF50.0
aF50.0
aF50.0
aF50.0
aF50.0
aF50.0
aF50.0
asS'Q'
p92
(lp93
F2.7583422660827637
aF2.7583422660827637
aF2.7583422660827637
aF2.7583422660827637
aF2.8140077590942383
aF2.7877461910247803
aF2.7967488765716553
aF2.7878506183624268
aF2.7909948825836182
aF2.7879464626312256
aF2.7890956401824951
aF2.7880105972290039
aF2.7883923053741455
aF2.7880394458770752
aF2.7881746292114258
aF2.7880570888519287
aF2.7880988121032715
aF2.7880580425262451
aF2.7880780696868896
aF2.7880628108978271
aF2.7880663871765137
aF2.7880616188049316
aF2.7880644798278809
aF2.7880656719207764
aF2.7880635261535645
aF2.7880642414093018
aF2.7880635261535645
aF2.7880642414093018
aF2.7880635261535645
aF2.7880656719207764
aF2.7880642414093018
aF2.7880642414093018
aF2.7880642414093018
aF2.7880642414093018
aF2.7880642414093018
aF2.7880642414093018
aF2.7880642414093018
aF2.7880642414093018
aF2.7880642414093018
aF2.7880642414093018
aF2.7880642414093018
aF2.7880642414093018
aF2.7880642414093018
aF2.7880642414093018
aF2.7880642414093018
aF2.7880642414093018
aF2.7880642414093018
aF2.7880642414093018
aF2.7880642414093018
aF2.7880642414093018
aF2.7880642414093018
aF2.7880642414093018
aF2.7880642414093018
aF2.7880642414093018
aF2.7880642414093018
aF2.7880642414093018
aF2.7880642414093018
aF2.7880642414093018
aF2.7880642414093018
aF2.7880642414093018
aF2.7327184677124023
aF2.7587151527404785
aF2.749657154083252
aF2.7585947513580322
aF2.7554175853729248
aF2.7584643363952637
aF2.7573750019073486
aF2.7583978176116943
aF2.7580163478851318
aF2.758366584777832
aF2.7582306861877441
aF2.7583544254302979
aF2.7583062648773193
aF2.7583467960357666
aF2.758328914642334
aF2.7583427429199219
aF2.7583408355712891
aF2.7583456039428711
aF2.7583403587341309
aF2.7583422660827637
aF2.7583415508270264
aF2.7583422660827637
aF2.7583422660827637
aF2.7583422660827637
aF2.7583422660827637
aF2.7583422660827637
aF2.7583422660827637
aF2.7583422660827637
aF2.7583422660827637
aF2.7583422660827637
aF2.7583422660827637
aF2.7583422660827637
aF2.7583422660827637
aF2.7583422660827637
aF2.7583422660827637
aF2.7583422660827637
aF2.7583422660827637
aF2.7583422660827637
aF2.7583422660827637
aF2.7583422660827637
aF2.7583422660827637
aF2.7583422660827637
aF2.7583422660827637
aF2.7583422660827637
aF2.7583422660827637
aF2.7583422660827637
aF2.7583422660827637
aF2.7583422660827637
aF2.7583422660827637
aF2.7583422660827637
aF2.7583422660827637
aF2.7583422660827637
aF2.7583422660827637
aF2.7583422660827637
aF2.7583422660827637
aF2.7583422660827637
aF2.7583422660827637
aF2.7583422660827637
aF2.7583422660827637
aF2.7583422660827637
aF2.7583422660827637
assg49
S'21'
p94
ssS'x001'
p95
(dp96
g29
(lp97
F0.99849432706832886
aF0.99849432706832886
aF0.99849432706832886
aF0.99849432706832886
aF0.99846386909484863
aF0.99846291542053223
aF0.99846333265304565
aF0.99846291542053223
aF0.99846309423446655
aF0.99846291542053223
aF0.998462975025177
aF0.99846291542053223
aF0.998462975025177
aF0.99846291542053223
aF0.99846291542053223
aF0.99846291542053223
aF0.99846291542053223
aF0.99846291542053223
aF0.99846291542053223
aF0.99846291542053223
aF0.99846291542053223
aF0.99846291542053223
aF0.99846291542053223
aF0.99846291542053223
aF0.99846291542053223
aF0.99846291542053223
aF0.99846291542053223
aF0.99846291542053223
aF0.99846291542053223
aF0.99846291542053223
aF0.99846291542053223
aF0.99846291542053223
aF0.99846291542053223
aF0.99846291542053223
aF0.99846291542053223
aF0.99846291542053223
aF0.99846291542053223
aF0.99846291542053223
aF0.99846291542053223
aF0.99846291542053223
aF0.99846291542053223
aF0.99846291542053223
aF0.99846291542053223
aF0.99846291542053223
aF0.99846291542053223
aF0.99846291542053223
aF0.99846291542053223
aF0.99846291542053223
aF0.99846291542053223
aF0.99846291542053223
aF0.99846291542053223
aF0.99846291542053223
aF0.99846291542053223
aF0.99846291542053223
aF0.99846291542053223
aF0.99846291542053223
aF0.99846291542053223
aF0.99846291542053223
aF0.99846291542053223
aF0.99846291542053223
aF0.99849331378936768
aF0.99849432706832886
aF0.99849402904510498
aF0.99849432706832886
aF0.99849420785903931
aF0.99849432706832886
aF0.99849426746368408
aF0.99849432706832886
aF0.99849426746368408
aF0.99849432706832886
aF0.99849432706832886
aF0.99849432706832886
aF0.99849432706832886
aF0.99849432706832886
aF0.99849432706832886
aF0.99849432706832886
aF0.99849432706832886
aF0.99849432706832886
aF0.99849432706832886
aF0.99849432706832886
aF0.99849432706832886
aF0.99849432706832886
aF0.99849432706832886
aF0.99849432706832886
aF0.99849432706832886
aF0.99849432706832886
aF0.99849432706832886
aF0.99849432706832886
aF0.99849432706832886
aF0.99849432706832886
aF0.99849432706832886
aF0.99849432706832886
aF0.99849432706832886
aF0.99849432706832886
aF0.99849432706832886
aF0.99849432706832886
aF0.99849432706832886
aF0.99849432706832886
aF0.99849432706832886
aF0.99849432706832886
aF0.99849432706832886
aF0.99849432706832886
aF0.99849432706832886
aF0.99849432706832886
aF0.99849432706832886
aF0.99849432706832886
aF0.99849432706832886
aF0.99849432706832886
aF0.99849432706832886
aF0.99849432706832886
aF0.99849432706832886
aF0.99849432706832886
aF0.99849432706832886
aF0.99849432706832886
aF0.99849432706832886
aF0.99849432706832886
aF0.99849432706832886
aF0.99849432706832886
aF0.99849432706832886
aF0.99849432706832886
aF0.99849432706832886
asg49
S'1'
p98
sg48
I1
sg27
(lp99
F-0.72395294904708862
aF-0.72395294904708862
aF-0.72395294904708862
aF-0.72395294904708862
aF-0.72445589303970337
aF-0.72496414184570312
aF-0.72478783130645752
aF-0.72496199607849121
aF-0.7249000072479248
aF-0.72495973110198975
aF-0.72493797540664673
aF-0.72495841979980469
aF-0.72495079040527344
aF-0.72495782375335693
aF-0.72495514154434204
aF-0.72495752573013306
aF-0.72495663166046143
aF-0.72495746612548828
aF-0.72495710849761963
aF-0.72495740652084351
aF-0.72495728731155396
aF-0.72495740652084351
aF-0.72495734691619873
aF-0.72495734691619873
aF-0.72495734691619873
aF-0.72495734691619873
aF-0.72495734691619873
aF-0.72495734691619873
aF-0.72495734691619873
aF-0.72495734691619873
aF-0.72495734691619873
aF-0.72495734691619873
aF-0.72495734691619873
aF-0.72495734691619873
aF-0.72495734691619873
aF-0.72495734691619873
aF-0.72495734691619873
aF-0.72495734691619873
aF-0.72495734691619873
aF-0.72495734691619873
aF-0.72495734691619873
aF-0.72495734691619873
aF-0.72495734691619873
aF-0.72495734691619873
aF-0.72495734691619873
aF-0.72495734691619873
aF-0.72495734691619873
aF-0.72495734691619873
aF-0.72495734691619873
aF-0.72495734691619873
aF-0.72495734691619873
aF-0.72495734691619873
aF-0.72495734691619873
aF-0.72495734691619873
aF-0.72495734691619873
aF-0.72495734691619873
aF-0.72495734691619873
aF-0.72495734691619873
aF-0.72495734691619873
aF-0.72495734691619873
aF-0.72445440292358398
aF-0.72394591569900513
aF-0.72412252426147461
aF-0.72394829988479614
aF-0.72401034832000732
aF-0.72395062446594238
aF-0.7239723801612854
aF-0.72395193576812744
aF-0.72395956516265869
aF-0.7239525318145752
aF-0.72395521402359009
aF-0.7239527702331543
aF-0.7239537239074707
aF-0.72395288944244385
aF-0.7239532470703125
aF-0.72395294904708862
aF-0.72395306825637817
aF-0.72395294904708862
aF-0.7239530086517334
aF-0.72395294904708862
aF-0.72395294904708862
aF-0.72395294904708862
aF-0.72395294904708862
aF-0.72395294904708862
aF-0.72395294904708862
aF-0.72395294904708862
aF-0.72395294904708862
aF-0.72395294904708862
aF-0.72395294904708862
aF-0.72395294904708862
aF-0.72395294904708862
aF-0.72395294904708862
aF-0.72395294904708862
aF-0.72395294904708862
aF-0.72395294904708862
aF-0.72395294904708862
aF-0.72395294904708862
aF-0.72395294904708862
aF-0.72395294904708862
aF-0.72395294904708862
aF-0.72395294904708862
aF-0.72395294904708862
aF-0.72395294904708862
aF-0.72395294904708862
aF-0.72395294904708862
aF-0.72395294904708862
aF-0.72395294904708862
aF-0.72395294904708862
aF-0.72395294904708862
aF-0.72395294904708862
aF-0.72395294904708862
aF-0.72395294904708862
aF-0.72395294904708862
aF-0.72395294904708862
aF-0.72395294904708862
aF-0.72395294904708862
aF-0.72395294904708862
aF-0.72395294904708862
aF-0.72395294904708862
aF-0.72395294904708862
aF-0.72395294904708862
asssS'N'
p100
I121
sS'meta'
p101
(dp102
S'created'
p103
S'2019/02/2 at 1:46:52'
p104
sS'fileName'
p105
S'pgov1TestCab'
p106
sS'notes'
p107
S'\npgov1 test: gov on gen 1\nsim time = 60 seconds, \nchanged slackTol to 0.25. Timestep = 1\n'
p108
sS'integrationMethod'
p109
S'AB'
p110
sS'freqEffects'
p111
I1
sS'locations'
p112
(dp113
S'dydPath'
p114
(lp115
S'C:\\LTD\\pslf_systems\\eele554\\ee554.exc.dyd'
p116
asS'pslfPath'
p117
S'C:\\Program Files (x86)\\GE PSLF'
p118
sS'fullMiddlewareFilePath'
p119
S'C:\\Program Files (x86)\\GE PSLF\\PslfMiddleware'
p120
sS'savPath'
p121
S'C:\\LTD\\pslf_systems\\eele554\\ee554.sav'
p122
sss.
