(dp0
S'fdot'
p1
(lp2
F0.0
aF0.0
aF0.0
aF-0.0006756756756756756
aF0.0006946463689019893
aF-0.0011702310213134166
aF0.0016736894694172376
aF-0.0025091139593656376
aF0.003716431816867133
aF-0.0055045164656116119
aF0.0081981493065710655
aF-0.012089466411889835
aF0.018100641525840695
aF-0.026490418560472843
aF0.034107495611769553
aF-0.052098694328865471
aF0.035225003710973694
aF-0.072140200588960424
aF0.037076491870475736
aF-0.092205446825002299
aF0.039995010277070343
aF-0.11806797305884569
aF0.044934888142952448
aF-0.159575641141804
aF0.055051066832940553
aF-0.24392534749794925
asS'Pm'
p3
(lp4
F100.00000762939453
aF100.00000762939453
aF100.00000762939453
aF102.02703465642159
aF99.267419874040186
aF103.47275930688225
aF97.281459877317275
aF106.48249122483142
aF92.824081814864002
aF113.05406302856611
aF82.955098643241229
aF127.42164718548186
aF61.030256196069814
aF150.0
aF21.187094604218402
aF150.0
aF-7.7737054617864771
aF150.0
aF-33.369676200387573
aF150.0
aF-62.190477656213119
aF150.0
aF-102.87263748770306
aF150.0
aF-174.72884164062555
aF150.0
asS't'
p5
(lp6
F0.0
aF1.0
aF2.0
aF3.0
aF4.0
aF5.0
aF6.0
aF7.0
aF8.0
aF9.0
aF10.0
aF11.0
aF12.0
aF13.0
aF14.0
aF15.0
aF16.0
aF17.0
aF18.0
aF19.0
aF20.0
aF21.0
aF22.0
aF23.0
aF24.0
aF25.0
asS'Qgen'
p7
(lp8
F0.0
aF0.0
aF0.0
aF0.0
aF0.0
aF0.0
aF0.0
aF0.0
aF0.0
aF0.0
aF0.0
aF0.0
aF0.0
aF0.0
aF0.0
aF0.0
aF0.0
aF0.0
aF0.0
aF0.0
aF0.0
aF0.0
aF0.0
aF0.0
aF0.0
aF0.0
asS'deltaF'
p9
(lp10
F0.0
aF0.0
aF0.0
aF-0.0010135135135135309
aF0.0013798073911907016
aF-0.0021026697164210351
aF0.0030956497147824891
aF-0.0046005156737570774
aF0.0068292047049837157
aF-0.01011499060685106
aF0.015049482192662445
aF-0.022233274271120318
aF0.033195695494706023
aF-0.048785948603629614
aF0.064406452697890804
aF-0.095201789299182993
aF0.078886852730893242
aF-0.12582280273892743
aF0.091684838100193788
aF-0.15684641617274131
aF0.10609523882810656
aF-0.19709946472680373
aF0.12643631874385153
aF-0.26183090578418222
aF0.16236442082031277
aF-0.39341355466339417
asS'Pload'
p11
(lp12
F100.0
aF100.0
aF101.0
aF101.0
aF101.0
aF101.0
aF101.0
aF101.0
aF101.0
aF101.0
aF101.0
aF101.0
aF101.0
aF101.0
aF101.0
aF101.0
aF101.0
aF101.0
aF101.0
aF101.0
aF101.0
aF101.0
aF101.0
aF101.0
aF101.0
aF101.0
asS'Qload'
p13
(lp14
F0.0
aF0.0
aF0.0
aF0.0
aF0.0
aF0.0
aF0.0
aF0.0
aF0.0
aF0.0
aF0.0
aF0.0
aF0.0
aF0.0
aF0.0
aF0.0
aF0.0
aF0.0
aF0.0
aF0.0
aF0.0
aF0.0
aF0.0
aF0.0
aF0.0
aF0.0
asS'Pacc'
p15
(lp16
F0.0
aF0.0
aF-1.0
aF1.0270346564215913
aF-1.7325763112625481
aF2.4727593068822529
aF-3.7185363079854596
aF5.4824912248314206
aF-8.1759143704387327
aF12.054066843263371
aF-18.044897542061506
aF26.421651000179125
aF-39.96973998923292
aF49.000001907348633
aF-79.812905395781598
aF48.999999046325684
aF-108.77370546178648
aF48.999999046325684
aF-134.36967620038757
aF49.000005722045898
aF-163.19047384151585
aF49.0
aF-203.87263748770306
aF49.000003814697266
aF-275.72883973327691
aF49.0
asS'f'
p17
(lp18
F1.0
aF1.0
aF1.0
aF0.99898648648648647
aF1.0003662938776772
aF0.99826362416125614
aF1.0013592738760386
aF0.99675875820228155
aF1.0035879629072653
aF0.9934729723004142
aF1.0085224544930767
aF0.98628918022195633
aF1.0194848757166624
aF0.97069892711303274
aF1.0351053798109235
aF0.93990359051174055
aF1.0187904432426338
aF0.89296764050370636
aF0.98465247860390015
aF0.82780606243115884
aF0.9339013012592654
aF0.73680183653246167
aF0.8632381552763132
aF0.60140724949213098
aF0.76377167031244375
aF0.37035811564904958
asS'Hsys'
p19
F740.0
sS'Pe'
p20
(lp21
F100.00000762939453
aF100.00000762939453
aF101.0
aF100.99999618530273
aF101.0
aF100.99999618530273
aF101.0
aF100.99999618530273
aF100.99999618530273
aF100.99999618530273
aF100.99999618530273
aF100.99999618530273
aF100.99999809265137
aF101.0
aF101.00000095367432
aF101.0
aF101.00000095367432
aF101.0
aF100.9999942779541
aF100.99999618530273
aF101.0
aF101.0
aF100.99999618530273
aF100.99999809265137
aF101.0
aF101.0
asS'Sbase'
p22
F100.0
sS'A1'
p23
(dp24
S'S011'
p25
(dp26
S'Va'
p27
(lp28
F-0.67385661602020264
aF-0.67385661602020264
aF-0.67385661602020264
aF-0.67385661602020264
aF-0.67385661602020264
aF-0.67385661602020264
aF-0.67385661602020264
aF-0.67385661602020264
aF-0.67385661602020264
aF-0.67385661602020264
aF-0.67385661602020264
aF-0.67385661602020264
aF-0.67385661602020264
aF-0.67385661602020264
aF-0.67385661602020264
aF-0.67385661602020264
aF-0.67385661602020264
aF-0.67385661602020264
aF-0.67385661602020264
aF-0.67385661602020264
aF-0.67385661602020264
aF-0.67385661602020264
aF-0.67385661602020264
aF-0.67385661602020264
aF-0.67385661602020264
aF-0.67385661602020264
asS'Vm'
p29
(lp30
F1.0
aF1.0
aF1.0
aF1.0
aF1.0
aF1.0
aF1.0
aF1.0
aF1.0
aF1.0
aF1.0
aF1.0
aF1.0
aF1.0
aF1.0
aF1.0
aF1.0
aF1.0
aF1.0
aF1.0
aF1.0
aF1.0
aF1.0
aF1.0
aF1.0
aF1.0
asS'S0'
p31
(dp32
S'Hpu'
p33
F3.7000000000000002
sS'Pe'
p34
(lp35
F50.000007629394531
aF50.000007629394531
aF50.5
aF51.513511657714844
aF50.133712768554688
aF52.236377716064453
aF49.140731811523438
aF53.741241455078125
aF46.912040710449219
aF57.027030944824219
aF41.977546691894531
aF64.210823059082031
aF31.015127182006836
aF75.5
aF11.093544960021973
aF75.5
aF-3.3868551254272461
aF75.5
aF-16.184843063354492
aF75.5
aF-30.595230102539062
aF75.5
aF-50.936328887939453
aF75.5
aF-86.864425659179688
aF75.5
asS'Q'
p36
(lp37
F2.7583422660827637
aF2.7583422660827637
aF2.8140077590942383
aF2.8681044578552246
aF2.7949669361114502
aF2.9080190658569336
aF2.7447946071624756
aF2.9945855140686035
aF2.6396186351776123
aF3.1999800205230713
aF2.4436478614807129
aF3.7276737689971924
aF2.1897621154785156
aF4.7752299308776855
aF2.3696308135986328
aF4.7751789093017578
aF3.0214433670043945
aF4.7752084732055664
aF3.9651851654052734
aF4.7752218246459961
aF5.4444022178649902
aF4.7752165794372559
aF8.2936534881591797
aF4.7752251625061035
aF15.563299179077148
aF4.7751917839050293
asS'Pm'
p38
(lp39
F50.000007629394531
aF50.000007629394531
aF50.000007629394531
aF52.027034656421591
aF49.267419874040186
aF53.472759306882253
aF47.281459877317275
aF56.482491224831428
aF42.824081814863995
aF63.054063028566112
aF32.955098643241222
aF77.421647185481859
aF11.030256196069814
aF100.0
aF-28.812905395781598
aF100.0
aF-57.773705461786477
aF100.0
aF-83.369676200387573
aF100.0
aF-112.19047765621312
aF100.0
aF-152.87263748770306
aF100.0
aF-224.72884164062555
aF100.0
asS'St'
p40
(lp41
I1
aI1
aI1
aI1
aI1
aI1
aI1
aI1
aI1
aI1
aI1
aI1
aI1
aI1
aI1
aI1
aI1
aI1
aI1
aI1
aI1
aI1
aI1
aI1
aI1
aI1
asS'Pe_error'
p42
(lp43
F0.0
aF0.0
aF7.62939453125e-06
aF5.6704959519038312e-06
aF-4.738883227162205e-06
aF1.9373766733110642e-06
aF-3.7802134329467663e-06
aF4.1573375924031097e-06
aF-1.7103658578321301e-06
aF-1.3378897918414623e-06
aF7.2237744319636477e-07
aF-1.3736897415128624e-06
aF-9.9132056163853122e-07
aF-9.5367431640625e-07
aF2.3420872281576521e-06
aF4.76837158203125e-07
aF2.3945340075215427e-06
aF4.76837158203125e-07
aF4.9631607055289351e-06
aF-2.86102294921875e-06
aF-1.0632916129793557e-05
aF0.0
aF1.0144087923436018e-05
aF-1.9073486328125e-06
aF3.8851925978633517e-06
aF0.0
asS'Pe_calc'
p44
(lp45
F50.000007629394531
aF50.000007629394531
aF50.500007629394531
aF51.513517328210796
aF50.13370802967146
aF52.236379653441126
aF49.140728031310005
aF53.741245612415717
aF46.912039000083361
aF57.027029606934427
aF41.977547414271974
aF64.21082168539229
aF31.015126190686274
aF75.499999046325684
aF11.093547302109201
aF75.500000476837158
aF-3.3868527308932386
aF75.500000476837158
aF-16.184838100193787
aF75.499997138977051
aF-30.595240735455192
aF75.5
aF-50.93631874385153
aF75.499998092651367
aF-86.86442177398709
aF75.5
asS'Slack'
p46
I1
sS'Mbase'
p47
F100.0
ssS'BusNum'
p48
I11
sS'BusName'
p49
S'11'
p50
ssS'Nload'
p51
I2
sS'Ngen'
p52
I2
sS'AreaNum'
p53
I1
sS'x002'
p54
(dp55
g29
(lp56
F0.99849432706832886
aF0.99849432706832886
aF0.99846386909484863
aF0.99846512079238892
aF0.9984632134437561
aF0.99846524000167847
aF0.99846059083938599
aF0.99846374988555908
aF0.9984508752822876
aF0.99845200777053833
aF0.99841034412384033
aF0.99838578701019287
aF0.99822622537612915
aF0.99816912412643433
aF0.99755847454071045
aF0.99816912412643433
aF0.99680119752883911
aF0.99816912412643433
aF0.99593913555145264
aF0.99816906452178955
aF0.99474883079528809
aF0.99816906452178955
aF0.99266469478607178
aF0.99816912412643433
aF0.98778218030929565
aF0.99816912412643433
asg49
S'2'
p57
sg48
I2
sg27
(lp58
F-0.72395294904708862
aF-0.72395294904708862
aF-0.72445589303970337
aF-0.72554022073745728
aF-0.72406405210494995
aF-0.72631365060806274
aF-0.72300189733505249
aF-0.7279239296913147
aF-0.72061824798583984
aF-0.7314409613609314
aF-0.71534216403961182
aF-0.73913580179214478
aF-0.70362615585327148
aF-0.75124692916870117
aF-0.68233621120452881
aF-0.75124692916870117
aF-0.66684424877166748
aF-0.75124692916870117
aF-0.65312737226486206
aF-0.75124692916870117
aF-0.63764101266860962
aF-0.75124692916870117
aF-0.61567836999893188
aF-0.75124692916870117
aF-0.57646477222442627
aF-0.75124692916870117
assS'L003'
p59
(dp60
S'L0'
p61
(dp62
S'P'
p63
(lp64
F100.0
aF100.0
aF101.0
aF101.0
aF101.0
aF101.0
aF101.0
aF101.0
aF101.0
aF101.0
aF101.0
aF101.0
aF101.0
aF101.0
aF101.0
aF101.0
aF101.0
aF101.0
aF101.0
aF101.0
aF101.0
aF101.0
aF101.0
aF101.0
aF101.0
aF101.0
asS'St'
p65
(lp66
I1
aI1
aI1
aI1
aI1
aI1
aI1
aI1
aI1
aI1
aI1
aI1
aI1
aI1
aI1
aI1
aI1
aI1
aI1
aI1
aI1
aI1
aI1
aI1
aI1
aI1
asS'Q'
p67
(lp68
F0.0
aF0.0
aF0.0
aF0.0
aF0.0
aF0.0
aF0.0
aF0.0
aF0.0
aF0.0
aF0.0
aF0.0
aF0.0
aF0.0
aF0.0
aF0.0
aF0.0
aF0.0
aF0.0
aF0.0
aF0.0
aF0.0
aF0.0
aF0.0
aF0.0
aF0.0
assg27
(lp69
F-0.72896814346313477
aF-0.72896814346313477
aF-0.72952151298522949
aF-0.7305719256401062
aF-0.7291419506072998
aF-0.73132121562957764
aF-0.72811299562454224
aF-0.73288124799728394
aF-0.7258039116859436
aF-0.73628854751586914
aF-0.72069323062896729
aF-0.74374395608901978
aF-0.70934569835662842
aF-0.75547951459884644
aF-0.68873035907745361
aF-0.75547951459884644
aF-0.67373371124267578
aF-0.75547951459884644
aF-0.66045856475830078
aF-0.75547951459884644
aF-0.64547485113143921
aF-0.75547951459884644
aF-0.62423276901245117
aF-0.75547951459884644
aF-0.5863303542137146
aF-0.75547951459884644
asg29
(lp70
F0.99848175048828125
aF0.99848175048828125
aF0.9984511137008667
aF0.99845057725906372
aF0.99845105409622192
aF0.99844950437545776
aF0.99845010042190552
aF0.99844539165496826
aF0.99844419956207275
aF0.9984281063079834
aF0.99841189384460449
aF0.99834966659545898
aF0.99824619293212891
aF0.99811363220214844
aF0.99761152267456055
aF0.99811363220214844
aF0.99687820672988892
aF0.99811363220214844
aF0.99603724479675293
aF0.99811363220214844
aF0.99487078189849854
aF0.99811363220214844
aF0.99282032251358032
aF0.99811363220214844
aF0.98799782991409302
aF0.99811363220214844
asS'L1'
p71
(dp72
g63
(lp73
F20.0
aF20.0
aF20.0
aF20.0
aF20.0
aF20.0
aF20.0
aF20.0
aF20.0
aF20.0
aF20.0
aF20.0
aF20.0
aF20.0
aF20.0
aF20.0
aF20.0
aF20.0
aF20.0
aF20.0
aF20.0
aF20.0
aF20.0
aF20.0
aF20.0
aF20.0
asg65
(lp74
I0
aI0
aI0
aI0
aI0
aI0
aI0
aI0
aI0
aI0
aI0
aI0
aI0
aI0
aI0
aI0
aI0
aI0
aI0
aI0
aI0
aI0
aI0
aI0
aI0
aI0
asg67
(lp75
F0.0
aF0.0
aF0.0
aF0.0
aF0.0
aF0.0
aF0.0
aF0.0
aF0.0
aF0.0
aF0.0
aF0.0
aF0.0
aF0.0
aF0.0
aF0.0
aF0.0
aF0.0
aF0.0
aF0.0
aF0.0
aF0.0
aF0.0
aF0.0
aF0.0
aF0.0
assg48
I3
sg49
S'3'
p76
ssS'G021'
p77
(dp78
g27
(lp79
F-0.67385661602020264
aF-0.67385661602020264
aF-0.67385661602020264
aF-0.6759573221206665
aF-0.67309743165969849
aF-0.6774556040763855
aF-0.67103928327560425
aF-0.68057477474212646
aF-0.66641980409622192
aF-0.68738555908203125
aF-0.65619122982025146
aF-0.70227879285812378
aF-0.63345938920974731
aF-0.72569739818572998
aF-0.59208720922470093
aF-0.72569739818572998
aF-0.56193006038665771
aF-0.72569739818572998
aF-0.53519147634506226
aF-0.72569739818572998
aF-0.50496214628219604
aF-0.72569739818572998
aF-0.46201527118682861
aF-0.72569739818572998
aF-0.385111004114151
aF-0.72569739818572998
asg29
(lp80
F1.0
aF1.0
aF1.0
aF1.0
aF1.0
aF1.0
aF1.0
aF1.0
aF1.0
aF1.0
aF1.0
aF1.0
aF1.0
aF1.0
aF1.0
aF1.0
aF1.0
aF1.0
aF1.0
aF1.0
aF1.0
aF1.0
aF1.0
aF1.0
aF1.0
aF1.0
asg48
I21
sS'G0'
p81
(dp82
S'Pe'
p83
(lp84
F50.0
aF50.0
aF50.5
aF49.486484527587891
aF50.866287231445312
aF48.763618469238281
aF51.859268188476562
aF47.258754730224609
aF54.087955474853516
aF43.972965240478516
aF59.022449493408203
aF36.789173126220703
aF69.984870910644531
aF25.5
aF89.906455993652344
aF25.5
aF104.38685607910156
aF25.5
aF117.18483734130859
aF25.499996185302734
aF131.59523010253906
aF25.5
aF151.93632507324219
aF25.499998092651367
aF187.86442565917969
aF25.5
asS'Hpu'
p85
F3.7000000000000002
sS'Slack'
p86
I0
sS'Mbase'
p87
F100.0
sS'St'
p88
(lp89
I1
aI1
aI1
aI1
aI1
aI1
aI1
aI1
aI1
aI1
aI1
aI1
aI1
aI1
aI1
aI1
aI1
aI1
aI1
aI1
aI1
aI1
aI1
aI1
aI1
aI1
asS'Pm'
p90
(lp91
F50.0
aF50.0
aF50.0
aF50.0
aF50.0
aF50.0
aF50.0
aF50.0
aF50.0
aF50.0
aF50.0
aF50.0
aF50.0
aF50.0
aF50.0
aF50.0
aF50.0
aF50.0
aF50.0
aF50.0
aF50.0
aF50.0
aF50.0
aF50.0
aF50.0
aF50.0
asS'Q'
p92
(lp93
F2.7583422660827637
aF2.7583422660827637
aF2.8140077590942383
aF2.7619905471801758
aF2.8333215713500977
aF2.7262430191040039
aF2.8870632648468018
aF2.6553142070770264
aF3.0152044296264648
aF2.5167770385742188
aF3.3357803821563721
aF2.2922482490539551
aF4.2300877571105957
aF2.1566529273986816
aF6.5012893676757812
aF2.1566603183746338
aF8.6796846389770508
aF2.1566784381866455
aF10.979029655456543
aF2.1566853523254395
aF13.993951797485352
aF2.1566834449768066
aF19.031835556030273
aF2.1566727161407471
aF30.247137069702148
aF2.1566445827484131
assg49
S'21'
p94
ssS'x001'
p95
(dp96
g29
(lp97
F0.99849432706832886
aF0.99849432706832886
aF0.99846386909484863
aF0.99846166372299194
aF0.99846446514129639
aF0.9984593391418457
aF0.99846518039703369
aF0.99845278263092041
aF0.99846303462982178
aF0.99842995405197144
aF0.99843919277191162
aF0.99833941459655762
aF0.99829214811325073
aF0.99808448553085327
aF0.9976920485496521
aF0.99808448553085327
aF0.99698430299758911
aF0.99808448553085327
aF0.99616628885269165
aF0.99808448553085327
aF0.9950261116027832
aF0.99808448553085327
aF0.99301356077194214
aF0.99808448553085327
aF0.9882616400718689
aF0.99808448553085327
asg49
S'1'
p98
sg48
I1
sg27
(lp99
F-0.72395294904708862
aF-0.72395294904708862
aF-0.72445589303970337
aF-0.72547239065170288
aF-0.72408854961395264
aF-0.72619748115539551
aF-0.72309279441833496
aF-0.7277071475982666
aF-0.72085815668106079
aF-0.73100441694259644
aF-0.71591216325759888
aF-0.73821866512298584
aF-0.70492982864379883
aF-0.74957382678985596
aF-0.68497604131698608
aF-0.74957382678985596
aF-0.67045950889587402
aF-0.74957382678985596
aF-0.6576087474822998
aF-0.74957382678985596
aF-0.64310359954833984
aF-0.74957382678985596
aF-0.62253940105438232
aF-0.74957382678985596
aF-0.58584684133529663
aF-0.74957382678985596
asssS'N'
p100
I27
sS'meta'
p101
(dp102
S'created'
p103
S'2019/02/2 at 1:54:32'
p104
sS'fileName'
p105
S'pgov1TestAab'
p106
sS'notes'
p107
S'\npgov1 test: gov on gen 1\nsim time = 60 seconds, \nchanged slackTol to 0.25. Timestep = 1\n'
p108
sS'integrationMethod'
p109
S'AB'
p110
sS'freqEffects'
p111
I1
sS'locations'
p112
(dp113
S'dydPath'
p114
(lp115
S'C:\\LTD\\pslf_systems\\eele554\\ee554.exc.dyd'
p116
asS'pslfPath'
p117
S'C:\\Program Files (x86)\\GE PSLF'
p118
sS'fullMiddlewareFilePath'
p119
S'C:\\Program Files (x86)\\GE PSLF\\PslfMiddleware'
p120
sS'savPath'
p121
S'C:\\LTD\\pslf_systems\\eele554\\ee554.sav'
p122
sss.
