(dp0
S'fdot'
p1
(lp2
F0.0
aF0.0
aF0.0
aF0.0
aF0.0
aF-0.0006756756756756756
aF0.00069429417368353135
aF-0.001169734413747835
aF0.0016717036426427499
aF-0.0025069966425016492
aF0.0037085902462794247
aF-0.0054989134424008098
aF0.0081701635930647738
aF-0.012081902610336148
aF0.018001175913208614
aF-0.026518633697191596
aF0.039727519723189941
aF-0.058045363553560152
aF0.069087009133818725
aF-0.1086161297079534
aF0.071479479105693591
aF-0.14891867829599786
aF0.075411567738897331
aF-0.19024033441460048
aF0.081647219256992365
aF-0.24475392444334984
aF0.092379645041224673
aF-0.33436476876814308
aF0.11519133474795426
aF-0.52288918801165107
asS'Pm'
p3
(lp4
F100.00000762939453
aF100.00000762939453
aF100.00000762939453
aF100.00000762939453
aF100.00000762939453
aF102.02703465642136
aF99.268476459695151
aF103.47197387462214
aF97.287128532946625
aF106.47982210309425
aF92.847054721755029
aF113.05238529523676
aF83.042981073641727
aF127.45885249771494
aF61.373422147752891
aF158.93049915253644
aF13.22930628577447
aF200.0
aF-65.306390955016639
aF200.0
aF-123.05456702503398
aF200.0
aF-175.15338151268952
aF200.0
aF-235.18199218557771
aF200.0
aF-321.89285956702361
aF200.0
aF-479.93877301200587
aF200.0
asS't'
p5
(lp6
F0.0
aF0.5
aF1.0
aF1.5
aF2.0
aF2.5
aF3.0
aF3.5
aF4.0
aF4.5
aF5.0
aF5.5
aF6.0
aF6.5
aF7.0
aF7.5
aF8.0
aF8.5
aF9.0
aF9.5
aF10.0
aF10.5
aF11.0
aF11.5
aF12.0
aF12.5
aF13.0
aF13.5
aF14.0
aF14.5
asS'Qgen'
p7
(lp8
F0.0
aF0.0
aF0.0
aF0.0
aF0.0
aF0.0
aF0.0
aF0.0
aF0.0
aF0.0
aF0.0
aF0.0
aF0.0
aF0.0
aF0.0
aF0.0
aF0.0
aF0.0
aF0.0
aF0.0
aF0.0
aF0.0
aF0.0
aF0.0
aF0.0
aF0.0
aF0.0
aF0.0
aF0.0
aF0.0
asS'deltaF'
p9
(lp10
F0.0
aF0.0
aF0.0
aF0.0
aF0.0
aF-0.00050675675675670995
aF0.00068963954918155324
aF-0.0010508743537317455
aF0.0015462113354188789
aF-0.0022981733925369063
aF0.003408191845334807
aF-0.005051332643370432
aF0.0075023510553987594
aF-0.011103967856018304
aF0.016521357587490515
aF-0.024389269251195889
aF0.036425298216690494
aF-0.053465902595967618
aF0.066326597738754156
aF-0.098733849564419662
aF0.080763641756258497
aF-0.12955887849842174
aF0.093788345378172377
aF-0.16153314274567465
aF0.10879549804639443
aF-0.20397724814676044
aF0.1304732148917559
aF-0.27386848783641349
aF0.16998469325300147
aF-0.42096472469572688
asS'Pload'
p11
(lp12
F100.0
aF100.0
aF100.0
aF100.0
aF101.0
aF101.0
aF101.0
aF101.0
aF101.0
aF101.0
aF101.0
aF101.0
aF101.0
aF101.0
aF101.0
aF101.0
aF101.0
aF101.0
aF101.0
aF101.0
aF101.0
aF101.0
aF101.0
aF101.0
aF101.0
aF101.0
aF101.0
aF101.0
aF101.0
aF101.0
asS'Qload'
p13
(lp14
F0.0
aF0.0
aF0.0
aF0.0
aF0.0
aF0.0
aF0.0
aF0.0
aF0.0
aF0.0
aF0.0
aF0.0
aF0.0
aF0.0
aF0.0
aF0.0
aF0.0
aF0.0
aF0.0
aF0.0
aF0.0
aF0.0
aF0.0
aF0.0
aF0.0
aF0.0
aF0.0
aF0.0
aF0.0
aF0.0
asS'Pacc'
p15
(lp16
F0.0
aF0.0
aF0.0
aF0.0
aF-1.0
aF1.0270346564213639
aF-1.731523540304849
aF2.4719738746221367
aF-3.7128714670533753
aF5.47982210309425
aF-8.152945278244971
aF12.052385295236761
aF-17.957018926358273
aF26.458852497714943
aF-39.626577852247109
aF57.930499152536441
aF-87.77069371422553
aF99.0
aF-166.30639095501664
aF99.0
aF-224.05456702503398
aF99.0
aF-276.15338151268952
aF99.0
aF-336.18199218557771
aF99.0
aF-422.89285956702361
aF99.0
aF-580.93877301200587
aF99.0
asS'f'
p17
(lp18
F1.0
aF1.0
aF1.0
aF1.0
aF1.0
aF0.99949324324324329
aF1.0001828827924248
aF0.9991320084386931
aF1.000678219774112
aF0.99838004638157507
aF1.0017882382269099
aF0.99673690558353945
aF1.0042392566389382
aF0.9931352887829199
aF1.0096566463704104
aF0.98526737711921453
aF1.021692675335905
aF0.9682267727399374
aF1.0345533704786916
aF0.9358195209142719
aF1.0165831626705304
aF0.88702428417210866
aF0.98081262955028103
aF0.81927948680460638
aF0.92807498485100082
aF0.72409773670424038
aF0.85457095159599628
aF0.58070246375958279
aF0.75068715701258426
aF0.32972243231685738
asS'Hsys'
p19
F740.0
sS'Pe'
p20
(lp21
F100.00000762939453
aF100.00000762939453
aF100.00000762939453
aF100.00000762939453
aF101.0
aF101.0
aF101.0
aF101.0
aF101.0
aF101.0
aF101.0
aF101.0
aF101.0
aF101.0
aF101.0
aF101.0
aF101.0
aF101.0
aF101.0
aF101.0
aF101.0
aF101.0
aF101.0
aF101.0
aF101.0
aF101.0
aF101.0
aF101.0
aF101.0
aF101.0
asS'Sbase'
p22
F100.0
sS'A1'
p23
(dp24
S'S011'
p25
(dp26
S'Va'
p27
(lp28
F-0.67385661602020264
aF-0.67385661602020264
aF-0.67385661602020264
aF-0.67385661602020264
aF-0.67385661602020264
aF-0.67385661602020264
aF-0.67385661602020264
aF-0.67385661602020264
aF-0.67385661602020264
aF-0.67385661602020264
aF-0.67385661602020264
aF-0.67385661602020264
aF-0.67385661602020264
aF-0.67385661602020264
aF-0.67385661602020264
aF-0.67385661602020264
aF-0.67385661602020264
aF-0.67385661602020264
aF-0.67385661602020264
aF-0.67385661602020264
aF-0.67385661602020264
aF-0.67385661602020264
aF-0.67385661602020264
aF-0.67385661602020264
aF-0.67385661602020264
aF-0.67385661602020264
aF-0.67385661602020264
aF-0.67385661602020264
aF-0.67385661602020264
aF-0.67385661602020264
asS'Vm'
p29
(lp30
F1.0
aF1.0
aF1.0
aF1.0
aF1.0
aF1.0
aF1.0
aF1.0
aF1.0
aF1.0
aF1.0
aF1.0
aF1.0
aF1.0
aF1.0
aF1.0
aF1.0
aF1.0
aF1.0
aF1.0
aF1.0
aF1.0
aF1.0
aF1.0
aF1.0
aF1.0
aF1.0
aF1.0
aF1.0
aF1.0
asS'S0'
p31
(dp32
S'Hpu'
p33
F3.7000000000000002
sS'Pe'
p34
(lp35
F50.000007629394531
aF50.000007629394531
aF50.000007629394531
aF50.000007629394531
aF50.5
aF50.500003814697266
aF50.500003814697266
aF50.500003814697266
aF50.500003814697266
aF50.500003814697266
aF50.500003814697266
aF50.500003814697266
aF50.500003814697266
aF50.500003814697266
aF50.500003814697266
aF50.500003814697266
aF50.500003814697266
aF50.5
aF50.5
aF50.5
aF50.5
aF50.5
aF50.5
aF50.5
aF50.5
aF50.5
aF50.5
aF50.5
aF50.5
aF50.5
asS'Q'
p36
(lp37
F2.7583422660827637
aF2.7583422660827637
aF2.7583422660827637
aF2.7583422660827637
aF2.8140077590942383
aF2.813976526260376
aF2.813976526260376
aF2.813976526260376
aF2.813976526260376
aF2.813976526260376
aF2.813976526260376
aF2.813976526260376
aF2.813976526260376
aF2.813976526260376
aF2.813976526260376
aF2.813976526260376
aF2.813976526260376
aF2.8139760494232178
aF2.8139760494232178
aF2.8139760494232178
aF2.8139760494232178
aF2.8139760494232178
aF2.8139760494232178
aF2.8139760494232178
aF2.8139760494232178
aF2.8139760494232178
aF2.8139760494232178
aF2.8139760494232178
aF2.8139760494232178
aF2.8139760494232178
asS'Pm'
p38
(lp39
F50.000007629394531
aF50.000007629394531
aF50.000007629394531
aF50.000007629394531
aF50.000007629394531
aF51.013521142907948
aF49.634242044544841
aF51.735990752008334
aF48.643568081170578
aF53.239914866244391
aF46.42353117557478
aF56.526196462315646
aF41.521494351518129
aF63.729430063554737
aF30.686714888573711
aF79.465253390965486
aF6.6146569575845007
aF100.0
aF-32.653195477508319
aF100.0
aF-61.527283512516988
aF100.0
aF-87.57669075634476
aF100.0
aF-117.59099609278886
aF100.0
aF-160.9464297835118
aF100.0
aF-239.96938650600293
aF100.0
asS'St'
p40
(lp41
I1
aI1
aI1
aI1
aI1
aI1
aI1
aI1
aI1
aI1
aI1
aI1
aI1
aI1
aI1
aI1
aI1
aI1
aI1
aI1
aI1
aI1
aI1
aI1
aI1
aI1
aI1
aI1
aI1
aI1
asS'Pe_error'
p42
(lp43
F0.0
aF0.0
aF0.0
aF0.0
aF7.62939453125e-06
aF0.0
aF0.0
aF0.0
aF0.0
aF0.0
aF0.0
aF0.0
aF0.0
aF0.0
aF0.0
aF0.0
aF0.0
aF0.0
aF0.0
aF0.0
aF0.0
aF0.0
aF0.0
aF0.0
aF0.0
aF0.0
aF0.0
aF0.0
aF0.0
aF0.0
asS'Pe_calc'
p44
(lp45
F50.000007629394531
aF50.000007629394531
aF50.000007629394531
aF50.000007629394531
aF50.500007629394531
aF50.500003814697266
aF50.500003814697266
aF50.500003814697266
aF50.500003814697266
aF50.500003814697266
aF50.500003814697266
aF50.500003814697266
aF50.500003814697266
aF50.500003814697266
aF50.500003814697266
aF50.500003814697266
aF50.500003814697266
aF50.5
aF50.5
aF50.5
aF50.5
aF50.5
aF50.5
aF50.5
aF50.5
aF50.5
aF50.5
aF50.5
aF50.5
aF50.5
asS'Slack'
p46
I1
sS'Mbase'
p47
F100.0
ssS'BusNum'
p48
I11
sS'BusName'
p49
S'11'
p50
ssS'Nload'
p51
I2
sS'Ngen'
p52
I2
sS'AreaNum'
p53
I1
sS'x002'
p54
(dp55
g29
(lp56
F0.99849432706832886
aF0.99849432706832886
aF0.99849432706832886
aF0.99849432706832886
aF0.99846386909484863
aF0.99846392869949341
aF0.99846392869949341
aF0.99846392869949341
aF0.99846392869949341
aF0.99846392869949341
aF0.99846392869949341
aF0.99846392869949341
aF0.99846392869949341
aF0.99846392869949341
aF0.99846392869949341
aF0.99846392869949341
aF0.99846392869949341
aF0.99846392869949341
aF0.99846392869949341
aF0.99846392869949341
aF0.99846392869949341
aF0.99846392869949341
aF0.99846392869949341
aF0.99846392869949341
aF0.99846392869949341
aF0.99846392869949341
aF0.99846392869949341
aF0.99846392869949341
aF0.99846392869949341
aF0.99846392869949341
asg49
S'2'
p57
sg48
I2
sg27
(lp58
F-0.72395294904708862
aF-0.72395294904708862
aF-0.72395294904708862
aF-0.72395294904708862
aF-0.72445589303970337
aF-0.72445589303970337
aF-0.72445589303970337
aF-0.72445589303970337
aF-0.72445589303970337
aF-0.72445589303970337
aF-0.72445589303970337
aF-0.72445589303970337
aF-0.72445589303970337
aF-0.72445589303970337
aF-0.72445589303970337
aF-0.72445589303970337
aF-0.72445589303970337
aF-0.72445589303970337
aF-0.72445589303970337
aF-0.72445589303970337
aF-0.72445589303970337
aF-0.72445589303970337
aF-0.72445589303970337
aF-0.72445589303970337
aF-0.72445589303970337
aF-0.72445589303970337
aF-0.72445589303970337
aF-0.72445589303970337
aF-0.72445589303970337
aF-0.72445589303970337
assS'L003'
p59
(dp60
S'L0'
p61
(dp62
S'P'
p63
(lp64
F100.0
aF100.0
aF100.0
aF100.0
aF101.0
aF101.0
aF101.0
aF101.0
aF101.0
aF101.0
aF101.0
aF101.0
aF101.0
aF101.0
aF101.0
aF101.0
aF101.0
aF101.0
aF101.0
aF101.0
aF101.0
aF101.0
aF101.0
aF101.0
aF101.0
aF101.0
aF101.0
aF101.0
aF101.0
aF101.0
asS'St'
p65
(lp66
I1
aI1
aI1
aI1
aI1
aI1
aI1
aI1
aI1
aI1
aI1
aI1
aI1
aI1
aI1
aI1
aI1
aI1
aI1
aI1
aI1
aI1
aI1
aI1
aI1
aI1
aI1
aI1
aI1
aI1
asS'Q'
p67
(lp68
F0.0
aF0.0
aF0.0
aF0.0
aF0.0
aF0.0
aF0.0
aF0.0
aF0.0
aF0.0
aF0.0
aF0.0
aF0.0
aF0.0
aF0.0
aF0.0
aF0.0
aF0.0
aF0.0
aF0.0
aF0.0
aF0.0
aF0.0
aF0.0
aF0.0
aF0.0
aF0.0
aF0.0
aF0.0
aF0.0
assg27
(lp69
F-0.72896814346313477
aF-0.72896814346313477
aF-0.72896814346313477
aF-0.72896814346313477
aF-0.72952151298522949
aF-0.72952157258987427
aF-0.72952157258987427
aF-0.72952157258987427
aF-0.72952157258987427
aF-0.72952157258987427
aF-0.72952157258987427
aF-0.72952157258987427
aF-0.72952157258987427
aF-0.72952157258987427
aF-0.72952157258987427
aF-0.72952157258987427
aF-0.72952157258987427
aF-0.72952151298522949
aF-0.72952151298522949
aF-0.72952151298522949
aF-0.72952151298522949
aF-0.72952151298522949
aF-0.72952151298522949
aF-0.72952151298522949
aF-0.72952151298522949
aF-0.72952151298522949
aF-0.72952151298522949
aF-0.72952151298522949
aF-0.72952151298522949
aF-0.72952151298522949
asg29
(lp70
F0.99848175048828125
aF0.99848175048828125
aF0.99848175048828125
aF0.99848175048828125
aF0.9984511137008667
aF0.9984511137008667
aF0.9984511137008667
aF0.9984511137008667
aF0.9984511137008667
aF0.9984511137008667
aF0.9984511137008667
aF0.9984511137008667
aF0.9984511137008667
aF0.9984511137008667
aF0.9984511137008667
aF0.9984511137008667
aF0.9984511137008667
aF0.9984511137008667
aF0.9984511137008667
aF0.9984511137008667
aF0.9984511137008667
aF0.9984511137008667
aF0.9984511137008667
aF0.9984511137008667
aF0.9984511137008667
aF0.9984511137008667
aF0.9984511137008667
aF0.9984511137008667
aF0.9984511137008667
aF0.9984511137008667
asS'L1'
p71
(dp72
g63
(lp73
F20.0
aF20.0
aF20.0
aF20.0
aF20.0
aF20.0
aF20.0
aF20.0
aF20.0
aF20.0
aF20.0
aF20.0
aF20.0
aF20.0
aF20.0
aF20.0
aF20.0
aF20.0
aF20.0
aF20.0
aF20.0
aF20.0
aF20.0
aF20.0
aF20.0
aF20.0
aF20.0
aF20.0
aF20.0
aF20.0
asg65
(lp74
I0
aI0
aI0
aI0
aI0
aI0
aI0
aI0
aI0
aI0
aI0
aI0
aI0
aI0
aI0
aI0
aI0
aI0
aI0
aI0
aI0
aI0
aI0
aI0
aI0
aI0
aI0
aI0
aI0
aI0
asg67
(lp75
F0.0
aF0.0
aF0.0
aF0.0
aF0.0
aF0.0
aF0.0
aF0.0
aF0.0
aF0.0
aF0.0
aF0.0
aF0.0
aF0.0
aF0.0
aF0.0
aF0.0
aF0.0
aF0.0
aF0.0
aF0.0
aF0.0
aF0.0
aF0.0
aF0.0
aF0.0
aF0.0
aF0.0
aF0.0
aF0.0
assg48
I3
sg49
S'3'
p76
ssS'G021'
p77
(dp78
g27
(lp79
F-0.67385661602020264
aF-0.67385661602020264
aF-0.67385661602020264
aF-0.67385661602020264
aF-0.67385661602020264
aF-0.67385661602020264
aF-0.67385661602020264
aF-0.67385661602020264
aF-0.67385661602020264
aF-0.67385661602020264
aF-0.67385661602020264
aF-0.67385661602020264
aF-0.67385661602020264
aF-0.67385661602020264
aF-0.67385661602020264
aF-0.67385661602020264
aF-0.67385661602020264
aF-0.67385661602020264
aF-0.67385661602020264
aF-0.67385661602020264
aF-0.67385661602020264
aF-0.67385661602020264
aF-0.67385661602020264
aF-0.67385661602020264
aF-0.67385661602020264
aF-0.67385661602020264
aF-0.67385661602020264
aF-0.67385661602020264
aF-0.67385661602020264
aF-0.67385661602020264
asg29
(lp80
F1.0
aF1.0
aF1.0
aF1.0
aF1.0
aF1.0
aF1.0
aF1.0
aF1.0
aF1.0
aF1.0
aF1.0
aF1.0
aF1.0
aF1.0
aF1.0
aF1.0
aF1.0
aF1.0
aF1.0
aF1.0
aF1.0
aF1.0
aF1.0
aF1.0
aF1.0
aF1.0
aF1.0
aF1.0
aF1.0
asg48
I21
sS'G0'
p81
(dp82
S'Pe'
p83
(lp84
F50.0
aF50.0
aF50.0
aF50.0
aF50.5
aF50.499996185302734
aF50.499996185302734
aF50.499996185302734
aF50.499996185302734
aF50.499996185302734
aF50.499996185302734
aF50.499996185302734
aF50.499996185302734
aF50.499996185302734
aF50.499996185302734
aF50.499996185302734
aF50.499996185302734
aF50.5
aF50.5
aF50.5
aF50.5
aF50.5
aF50.5
aF50.5
aF50.5
aF50.5
aF50.5
aF50.5
aF50.5
aF50.5
asS'Hpu'
p85
F3.7000000000000002
sS'Slack'
p86
I0
sS'Mbase'
p87
F100.0
sS'St'
p88
(lp89
I1
aI1
aI1
aI1
aI1
aI1
aI1
aI1
aI1
aI1
aI1
aI1
aI1
aI1
aI1
aI1
aI1
aI1
aI1
aI1
aI1
aI1
aI1
aI1
aI1
aI1
aI1
aI1
aI1
aI1
asS'Pm'
p90
(lp91
F50.0
aF50.0
aF50.0
aF50.0
aF50.0
aF51.013513513513416
aF49.63423441515031
aF51.735983122613803
aF48.643560451776047
aF53.239907236849859
aF46.423523546180249
aF56.526188832921115
aF41.521486722123598
aF63.729422434160206
aF30.68670725917918
aF79.465245761570955
aF6.6146493281899694
aF100.0
aF-32.653195477508319
aF100.0
aF-61.527283512516988
aF100.0
aF-87.57669075634476
aF100.0
aF-117.59099609278886
aF100.0
aF-160.9464297835118
aF100.0
aF-239.96938650600293
aF100.0
asS'Q'
p92
(lp93
F2.7583422660827637
aF2.7583422660827637
aF2.7583422660827637
aF2.7583422660827637
aF2.8140077590942383
aF2.8139727115631104
aF2.8139727115631104
aF2.8139727115631104
aF2.8139727115631104
aF2.8139727115631104
aF2.8139727115631104
aF2.8139727115631104
aF2.8139727115631104
aF2.8139727115631104
aF2.8139727115631104
aF2.8139727115631104
aF2.8139727115631104
aF2.8139760494232178
aF2.8139760494232178
aF2.8139760494232178
aF2.8139760494232178
aF2.8139760494232178
aF2.8139760494232178
aF2.8139760494232178
aF2.8139760494232178
aF2.8139760494232178
aF2.8139760494232178
aF2.8139760494232178
aF2.8139760494232178
aF2.8139760494232178
assg49
S'21'
p94
ssS'x001'
p95
(dp96
g29
(lp97
F0.99849432706832886
aF0.99849432706832886
aF0.99849432706832886
aF0.99849432706832886
aF0.99846386909484863
aF0.99846392869949341
aF0.99846392869949341
aF0.99846392869949341
aF0.99846392869949341
aF0.99846392869949341
aF0.99846392869949341
aF0.99846392869949341
aF0.99846392869949341
aF0.99846392869949341
aF0.99846392869949341
aF0.99846392869949341
aF0.99846392869949341
aF0.99846392869949341
aF0.99846392869949341
aF0.99846392869949341
aF0.99846392869949341
aF0.99846392869949341
aF0.99846392869949341
aF0.99846392869949341
aF0.99846392869949341
aF0.99846392869949341
aF0.99846392869949341
aF0.99846392869949341
aF0.99846392869949341
aF0.99846392869949341
asg49
S'1'
p98
sg48
I1
sg27
(lp99
F-0.72395294904708862
aF-0.72395294904708862
aF-0.72395294904708862
aF-0.72395294904708862
aF-0.72445589303970337
aF-0.72445589303970337
aF-0.72445589303970337
aF-0.72445589303970337
aF-0.72445589303970337
aF-0.72445589303970337
aF-0.72445589303970337
aF-0.72445589303970337
aF-0.72445589303970337
aF-0.72445589303970337
aF-0.72445589303970337
aF-0.72445589303970337
aF-0.72445589303970337
aF-0.72445589303970337
aF-0.72445589303970337
aF-0.72445589303970337
aF-0.72445589303970337
aF-0.72445589303970337
aF-0.72445589303970337
aF-0.72445589303970337
aF-0.72445589303970337
aF-0.72445589303970337
aF-0.72445589303970337
aF-0.72445589303970337
aF-0.72445589303970337
aF-0.72445589303970337
asssS'N'
p100
I31
sS'meta'
p101
(dp102
S'created'
p103
S'2019/02/2 at 1:55:41'
p104
sS'fileName'
p105
S'pgov1TestDab'
p106
sS'notes'
p107
S'\npgov1 test: gov on gen 1\nsim time = 60 seconds, \nchanged slackTol to 0.25. Timestep = 1\n'
p108
sS'integrationMethod'
p109
S'AB'
p110
sS'freqEffects'
p111
I1
sS'locations'
p112
(dp113
S'dydPath'
p114
(lp115
S'C:\\LTD\\pslf_systems\\eele554\\ee554.exc.dyd'
p116
aS'C:\\LTD\\pslf_systems\\eele554\\ee554.ltd.dyd'
p117
asS'pslfPath'
p118
S'C:\\Program Files (x86)\\GE PSLF'
p119
sS'fullMiddlewareFilePath'
p120
S'C:\\Program Files (x86)\\GE PSLF\\PslfMiddleware'
p121
sS'savPath'
p122
S'C:\\LTD\\pslf_systems\\eele554\\ee554.sav'
p123
sss.
