ccopy_reg
_reconstructor
p1
(cpsltdsim.mirror.Mirror
Mirror
p2
c__builtin__
object
p3
Ntp4
Rp0
(dp5
Vcreated
p6
cdatetime
datetime
p8
(I2019
I7
I8
I11
I18
I39
I816000
Ntp9
Rp7
sVsimNotes
p10
V\u000aMiniWECC Multi Area step of -1000 MW at t=2 on gen bus 62. ts = 1\u000aAddition of 3 BAs, uses type 0 TLB AGC ramps\u000a
p11
sVsearchDict
p12
(dp13
V112
p14
(dp15
VBus
p16
g1
(cpsltdsim.systemAgents.BusAgent
BusAgent
p18
g3
Ntp19
Rp17
(dp20
Vmirror
p21
g0
sVArea
p22
I3
sVBusnam
p23
VSC-112
p24
sVExtnum
p25
I112
sVScanbus
p26
I111
sVType
p27
I1
sVNload
p28
I1
sVNgen
p29
I0
sVNshunt
p30
I0
sVGens
p31
(lp32
sVSlack
p33
(lp34
sVLoad
p35
(lp36
g1
(cpsltdsim.systemAgents.LoadAgent
LoadAgent
p38
g3
Ntp39
Rp37
(dp40
Vmirror
p41
g0
sVBus
p42
g17
sVBusnum
p43
I112
sVId
p44
V1
p45
sVArea
p46
I3
sVZone
p47
I1
sVcv
p48
(dp49
VP
p50
F13175.0
sVSt
p51
I1
sVQ
p52
F3293.75
ssVTimer
p53
(dp54
sbasVShunt
p55
(lp56
sVSVD
p57
(lp58
sVTimer
p59
(dp60
sVcv
p61
(dp62
VVm
p63
F0.99857693910598755
sVVa
p64
F-0.76177936792373657
ssVBasekv
p65
F110.0
sVVsched
p66
F1.0
sbsVLoad
p67
g36
ssV7
p68
(dp69
VShunt
p70
(lp71
g1
(cpsltdsim.systemAgents.ShuntAgent
ShuntAgent
p73
g3
Ntp74
Rp72
(dp75
Vmirror
p76
g0
sVBus
p77
g1
(g18
g3
Ntp79
Rp78
(dp80
g21
g0
sg22
I1
sg23
VBCH-7
p81
sg25
I7
sg26
I6
sg27
I1
sg28
I0
sg29
I0
sg30
I1
sg31
(lp82
sg33
(lp83
sg35
(lp84
sg55
g71
sg57
(lp85
sg59
(dp86
sg61
(dp87
g63
F1.0394597053527832
sg64
F-0.020890193060040474
ssg65
F500.0
sg66
F1.0
sbsVArea
p88
I1
sVZone
p89
I1
sVId
p90
V1
p91
sVB
p92
F28.0
sVG
p93
F0.0
sVFBusnam
p94
VBCH-7
p95
sVFBusnum
p96
I7
sVFkv
p97
F500.0
sVTBusnam
p98
V
p99
sVTBusnum
p100
I-1
sVTkv
p101
F0.0
sVcv
p102
(dp103
VSt
p104
I1
ssVTimer
p105
(dp106
sbasVBus
p107
g78
ssV6
p108
(dp109
g70
(lp110
g1
(g73
g3
Ntp112
Rp111
(dp113
g76
g0
sg77
g1
(g18
g3
Ntp115
Rp114
(dp116
g21
g0
sg22
I1
sg23
VBCH-6
p117
sg25
I6
sg26
I5
sg27
I1
sg28
I0
sg29
I0
sg30
I1
sg31
(lp118
sg33
(lp119
sg35
(lp120
sg55
g110
sg57
(lp121
sg59
(dp122
sg61
(dp123
g63
F1.0175421237945557
sg64
F0.52829533815383911
ssg65
F500.0
sg66
F1.0
sbsg88
I1
sg89
I1
sg90
V1
p124
sg92
F2.0
sg93
F0.0
sg94
VBCH-6
p125
sg96
I6
sg97
F500.0
sg98
g99
sg100
I-1
sg101
F0.0
sg102
(dp126
g104
I1
ssg105
(dp127
sbasg107
g114
ssV5
p128
(dp129
VMachines
p130
(lp131
g1
(cpsltdsim.systemAgents.GeneratorAgent
GeneratorAgent
p133
g3
Ntp134
Rp132
(dp135
Vmirror
p136
g0
sVBus
p137
g1
(g18
g3
Ntp139
Rp138
(dp140
g21
g0
sg22
I1
sg23
VBCH-G3
p141
sg25
I5
sg26
I4
sg27
I2
sg28
I0
sg29
I1
sg30
I0
sg31
(lp142
g132
asg33
(lp143
sg35
(lp144
sg55
(lp145
sg57
(lp146
sg59
(dp147
sg61
(dp148
g63
F1.0249999761581421
sg64
F0.61468744277954102
ssg65
F20.0
sg66
F1.0249999999999999
sbsVId
p149
V1
p150
sVLid
p151
g99
sVArea
p152
I1
sVZone
p153
I1
sVBusnam
p154
VBCH-G3
p155
sVBusnum
p156
I5
sVScanbus
p157
I4
sVglobalSlack
p158
I00
sVareaSlack
p159
I00
sVdistType
p160
NsVACEpFactor
p161
NsVMbase
p162
F3700.0
sVH
p163
F18500.0
sVHpu
p164
F5.0
sVPmax
p165
F3700.0
sVQmax
p166
F1487.5
sVVsched
p167
F0.0
sVcv
p168
(dp169
VP0
p170
F2775.0
sVIRPflag
p171
I00
sVPref
p172
F2775.0
sVSCE
p173
F0.0
sVQ
p174
F355.66055
sVSt
p175
I1
sVPm
p176
F2775.0
sVPe
p177
F2775.0
ssVmachine_model
p178
g1
(cpsltdsim.pslfModels.genrou
genrou
p180
g3
Ntp181
Rp179
(dp182
VdydLine
p183
(lp184
Vgenrou
p185
aI5
aVBCH-G3
p186
aF20.0
aV1
p187
aV#9
p188
aVmva=3700.0000
p189
aF6.0
aF0.025000000000000001
aF0.059999999999999998
aF0.040000000000000001
aF5.0
aF0.0
aF1.2
aF0.69999999999999996
aF0.29999999999999999
aF0.23000000000000001
aF0.22
aF0.17000000000000001
aF0.050000000000000003
aF0.29999999999999999
aF0.0
aF0.0
aF0.0
aF0.0
asVType
p190
g185
sVBusnum
p191
I5
sVBusnam
p192
g186
sVBase_kV
p193
F20.0
sVId
p194
g187
sVRlevel
p195
g188
sVMbase
p196
F3700.0
sVTpdo
p197
F6.0
sVTppdo
p198
F0.025000000000000001
sVTpdq
p199
F0.059999999999999998
sVTppqo
p200
F0.040000000000000001
sVH
p201
F5.0
sVD
p202
F0.0
sVLd
p203
F1.2
sVLq
p204
F0.69999999999999996
sVLpd
p205
F0.29999999999999999
sVLpq
p206
F0.23000000000000001
sVLppd
p207
F0.22
sVLl
p208
F0.17000000000000001
sVS1
p209
F0.050000000000000003
sVS12
p210
F0.29999999999999999
sVRa
p211
F0.0
sVRcomp
p212
F0.0
sVXcomp
p213
F0.0
sVAccel
p214
F0.0
sbsVgov_model
p215
I00
sVTimer
p216
(dp217
sbasg107
g138
sVGens
p218
g142
ssV4
p219
(dp220
g70
(lp221
g1
(g73
g3
Ntp223
Rp222
(dp224
g76
g0
sg77
g1
(g18
g3
Ntp226
Rp225
(dp227
g21
g0
sg22
I1
sg23
VBCH-4
p228
sg25
I4
sg26
I3
sg27
I1
sg28
I0
sg29
I0
sg30
I1
sg31
(lp229
sg33
(lp230
sg35
(lp231
sg55
g221
sg57
(lp232
sg59
(dp233
sg61
(dp234
g63
F1.030552864074707
sg64
F0.24582763016223908
ssg65
F500.0
sg66
F1.0
sbsg88
I1
sg89
I1
sg90
V1
p235
sg92
F2.0
sg93
F0.0
sg94
VBCH-4
p236
sg96
I4
sg97
F500.0
sg98
g99
sg100
I-1
sg101
F0.0
sg102
(dp237
g104
I1
ssg105
(dp238
sbasg107
g225
ssV3
p239
(dp240
g130
(lp241
g1
(g133
g3
Ntp243
Rp242
(dp244
g136
g0
sg137
g1
(g18
g3
Ntp246
Rp245
(dp247
g21
g0
sg22
I1
sg23
VBCH-G2
p248
sg25
I3
sg26
I2
sg27
I2
sg28
I0
sg29
I1
sg30
I0
sg31
(lp249
g242
asg33
(lp250
sg35
(lp251
sg55
(lp252
sg57
(lp253
sg59
(dp254
sg61
(dp255
g63
F1.0249999761581421
sg64
F0.29881167411804199
ssg65
F20.0
sg66
F1.0249999999999999
sbsg149
V1
p256
sg151
g99
sg152
I1
sg153
I1
sg154
VBCH-G2
p257
sg156
I3
sg157
I2
sg158
I00
sg159
I00
sg160
Nsg161
Nsg162
F3700.0
sg163
F18500.0
sg164
F5.0
sg165
F3700.0
sg166
F1487.5
sg167
F0.0
sg168
(dp258
g170
F1725.0
sg171
I00
sg172
F1725.0
sg173
F0.0
sg174
F-129.79812999999999
sg175
I1
sg176
F1725.0
sg177
F1725.0
ssg178
g1
(g180
g3
Ntp260
Rp259
(dp261
g183
(lp262
Vgenrou
p263
aI3
aVBCH-G2
p264
aF20.0
aV1
p265
aV#9
p266
aVmva=3700.0000
p267
aF6.0
aF0.025000000000000001
aF0.059999999999999998
aF0.040000000000000001
aF5.0
aF0.0
aF1.2
aF0.69999999999999996
aF0.29999999999999999
aF0.23000000000000001
aF0.22
aF0.17000000000000001
aF0.050000000000000003
aF0.29999999999999999
aF0.0
aF0.0
aF0.0
aF0.0
asg190
g263
sg191
I3
sg192
g264
sg193
F20.0
sg194
g265
sg195
g266
sg196
F3700.0
sg197
F6.0
sg198
F0.025000000000000001
sg199
F0.059999999999999998
sg200
F0.040000000000000001
sg201
F5.0
sg202
F0.0
sg203
F1.2
sg204
F0.69999999999999996
sg205
F0.29999999999999999
sg206
F0.23000000000000001
sg207
F0.22
sg208
F0.17000000000000001
sg209
F0.050000000000000003
sg210
F0.29999999999999999
sg211
F0.0
sg212
F0.0
sg213
F0.0
sg214
F0.0
sbsg215
I00
sg216
(dp268
sbasg107
g245
sg218
g249
ssV2
p269
(dp270
g70
(lp271
g1
(g73
g3
Ntp273
Rp272
(dp274
g76
g0
sg77
g1
(g18
g3
Ntp276
Rp275
(dp277
g21
g0
sg22
I1
sg23
VBCH-2
p278
sg25
I2
sg26
I1
sg27
I1
sg28
I0
sg29
I0
sg30
I1
sg31
(lp279
sg33
(lp280
sg35
(lp281
sg55
g271
sg57
(lp282
sg59
(dp283
sg61
(dp284
g63
F1.0289086103439331
sg64
F0.42964774370193481
ssg65
F500.0
sg66
F1.0
sbsg88
I1
sg89
I1
sg90
V1
p285
sg92
F2.0
sg93
F0.0
sg94
VBCH-2
p286
sg96
I2
sg97
F500.0
sg98
g99
sg100
I-1
sg101
F0.0
sg102
(dp287
g104
I1
ssg105
(dp288
sbasg107
g275
ssV1
p289
(dp290
g130
(lp291
g1
(g133
g3
Ntp293
Rp292
(dp294
g136
g0
sg137
g1
(g18
g3
Ntp296
Rp295
(dp297
g21
g0
sg22
I1
sg23
VBCH-G1
p298
sg25
I1
sg26
I0
sg27
I2
sg28
I0
sg29
I1
sg30
I0
sg31
(lp299
g292
asg33
(lp300
sg35
(lp301
sg55
(lp302
sg57
(lp303
sg59
(dp304
sg61
(dp305
g63
F1.0249999761581421
sg64
F0.48024624586105347
ssg65
F20.0
sg66
F1.0249999999999999
sbsg149
V1
p306
sg151
g99
sg152
I1
sg153
I1
sg154
VBCH-G1
p307
sg156
I1
sg157
I0
sg158
I00
sg159
I00
sg160
Nsg161
Nsg162
F4500.0
sg163
F22500.0
sg164
F5.0
sg165
F4500.0
sg166
F1700.0
sg167
F0.0
sg168
(dp308
g170
F2000.0
sg171
I00
sg172
F2000.0
sg173
F0.0
sg174
F-99.610022999999998
sg175
I1
sg176
F2000.0
sg177
F2000.0
ssg178
g1
(g180
g3
Ntp310
Rp309
(dp311
g183
(lp312
Vgenrou
p313
aI1
aVBCH-G1
p314
aF20.0
aV1
p315
aV#9
p316
aVmva=4500.0000
p317
aF6.0
aF0.025000000000000001
aF0.059999999999999998
aF0.040000000000000001
aF5.0
aF0.0
aF1.2
aF0.69999999999999996
aF0.29999999999999999
aF0.23000000000000001
aF0.22
aF0.17000000000000001
aF0.050000000000000003
aF0.29999999999999999
aF0.0
aF0.0
aF0.0
aF0.0
asg190
g313
sg191
I1
sg192
g314
sg193
F20.0
sg194
g315
sg195
g316
sg196
F4500.0
sg197
F6.0
sg198
F0.025000000000000001
sg199
F0.059999999999999998
sg200
F0.040000000000000001
sg201
F5.0
sg202
F0.0
sg203
F1.2
sg204
F0.69999999999999996
sg205
F0.29999999999999999
sg206
F0.23000000000000001
sg207
F0.22
sg208
F0.17000000000000001
sg209
F0.050000000000000003
sg210
F0.29999999999999999
sg211
F0.0
sg212
F0.0
sg213
F0.0
sg214
F0.0
sbsg215
I00
sg216
(dp318
sbasg107
g295
sg218
g299
ssV119
p319
(dp320
g70
(lp321
g1
(g73
g3
Ntp323
Rp322
(dp324
g76
g0
sg77
g1
(g18
g3
Ntp326
Rp325
(dp327
g21
g0
sg22
I1
sg23
VALB-119
p328
sg25
I119
sg26
I118
sg27
I1
sg28
I0
sg29
I0
sg30
I1
sg31
(lp329
sg33
(lp330
sg35
(lp331
sg55
g321
sg57
(lp332
sg59
(dp333
sg61
(dp334
g63
F1.0195298194885254
sg64
F0.70739412307739258
ssg65
F500.0
sg66
F1.0
sbsg88
I1
sg89
I1
sg90
V1
p335
sg92
F23.25
sg93
F0.0
sg94
VALB-119
p336
sg96
I119
sg97
F500.0
sg98
g99
sg100
I-1
sg101
F0.0
sg102
(dp337
g104
I1
ssg105
(dp338
sbasg107
g325
ssV76
p339
(dp340
g130
(lp341
g1
(g133
g3
Ntp343
Rp342
(dp344
g136
g0
sg137
g1
(g18
g3
Ntp346
Rp345
(dp347
g21
g0
sg22
I1
sg23
VIDA-76
p348
sg25
I76
sg26
I75
sg27
I2
sg28
I0
sg29
I1
sg30
I0
sg31
(lp349
g342
asg33
(lp350
sg35
(lp351
sg55
(lp352
sg57
(lp353
sg59
(dp354
sg61
(dp355
g63
F1.0249999761581421
sg64
F-0.32906723022460938
ssg65
F20.0
sg66
F1.0249999999999999
sbsg149
V1
p356
sg151
g99
sg152
I1
sg153
I1
sg154
VIDA-76
p357
sg156
I76
sg157
I75
sg158
I00
sg159
I00
sg160
Nsg161
Nsg162
F2200.0
sg163
F11000.0
sg164
F5.0
sg165
F2200.0
sg166
F765.0
sg167
F0.0
sg168
(dp358
g170
F1530.0
sg171
I00
sg172
F1530.0
sg173
F0.0
sg174
F163.07899000000001
sg175
I1
sg176
F1530.0
sg177
F1530.0
ssg178
g1
(g180
g3
Ntp360
Rp359
(dp361
g183
(lp362
Vgenrou
p363
aI76
aVIDA-76
p364
aF20.0
aV1
p365
aV#9
p366
aVmva=2200.0000
p367
aF6.0
aF0.025000000000000001
aF0.059999999999999998
aF0.040000000000000001
aF5.0
aF0.0
aF1.2
aF0.69999999999999996
aF0.29999999999999999
aF0.23000000000000001
aF0.22
aF0.17000000000000001
aF0.050000000000000003
aF0.29999999999999999
aF0.0
aF0.0
aF0.0
aF0.0
asg190
g363
sg191
I76
sg192
g364
sg193
F20.0
sg194
g365
sg195
g366
sg196
F2200.0
sg197
F6.0
sg198
F0.025000000000000001
sg199
F0.059999999999999998
sg200
F0.040000000000000001
sg201
F5.0
sg202
F0.0
sg203
F1.2
sg204
F0.69999999999999996
sg205
F0.29999999999999999
sg206
F0.23000000000000001
sg207
F0.22
sg208
F0.17000000000000001
sg209
F0.050000000000000003
sg210
F0.29999999999999999
sg211
F0.0
sg212
F0.0
sg213
F0.0
sg214
F0.0
sbsg215
I00
sg216
(dp368
sbasg107
g345
sg218
g349
ssV66
p369
(dp370
VShunt
p371
(lp372
g1
(g73
g3
Ntp374
Rp373
(dp375
g76
g0
sg77
g1
(g18
g3
Ntp377
Rp376
(dp378
g21
g0
sg22
I3
sg23
VAZ-66
p379
sg25
I66
sg26
I65
sg27
I1
sg28
I0
sg29
I0
sg30
I1
sg31
(lp380
sg33
(lp381
sg35
(lp382
sg55
g372
sg57
(lp383
sg59
(dp384
sg61
(dp385
g63
F1.0227962732315064
sg64
F-0.29825165867805481
ssg65
F500.0
sg66
F1.0
sbsg88
I3
sg89
I1
sg90
V1
p386
sg92
F0.0
sg93
F0.0
sg94
VAZ-66
p387
sg96
I66
sg97
F500.0
sg98
g99
sg100
I-1
sg101
F0.0
sg102
(dp388
VSt
p389
I1
ssg105
(dp390
sbasg16
g376
ssV56
p391
(dp392
g107
g1
(g18
g3
Ntp394
Rp393
(dp395
g21
g0
sg22
I3
sg23
VLAS-LOAD
p396
sg25
I56
sg26
I55
sg27
I1
sg28
I1
sg29
I0
sg30
I0
sg31
(lp397
sg33
(lp398
sg35
(lp399
g1
(g38
g3
Ntp401
Rp400
(dp402
g41
g0
sg42
g393
sg43
I56
sg44
V1
p403
sg46
I3
sg47
I1
sg48
(dp404
g50
F6800.0
sg51
I1
sg52
F1700.0
ssg53
(dp405
sbasg55
(lp406
sg57
(lp407
sg59
(dp408
sg61
(dp409
g63
F0.99782091379165649
sg64
F-0.57599610090255737
ssg65
F110.0
sg66
F1.0
sbsVLoad
p410
g399
ssV46
p411
(dp412
g107
g1
(g18
g3
Ntp414
Rp413
(dp415
g21
g0
sg22
I3
sg23
VSC-46
p416
sg25
I46
sg26
I45
sg27
I1
sg28
I0
sg29
I0
sg30
I0
sg31
(lp417
sg33
(lp418
sg35
(lp419
sg55
(lp420
sg57
(lp421
sg59
(dp422
sg61
(dp423
g63
F1.0255300998687744
sg64
F-0.33440098166465759
ssg65
F500.0
sg66
F1.0
sbssV36
p424
(dp425
g107
g1
(g18
g3
Ntp427
Rp426
(dp428
g21
g0
sg22
I1
sg23
VORE-36
p429
sg25
I36
sg26
I35
sg27
I1
sg28
I1
sg29
I0
sg30
I0
sg31
(lp430
sg33
(lp431
sg35
(lp432
g1
(g38
g3
Ntp434
Rp433
(dp435
g41
g0
sg42
g426
sg43
I36
sg44
V1
p436
sg46
I1
sg47
I1
sg48
(dp437
g50
F900.0
sg51
I1
sg52
F225.0
ssg53
(dp438
sbasg55
(lp439
sg57
(lp440
sg59
(dp441
sg61
(dp442
g63
F1.0226478576660156
sg64
F-0.29466366767883301
ssg65
F110.0
sg66
F1.0
sbsg410
g432
ssV26
p443
(dp444
g107
g1
(g18
g3
Ntp446
Rp445
(dp447
g21
g0
sg22
I1
sg23
VORE-26
p448
sg25
I26
sg26
I25
sg27
I1
sg28
I1
sg29
I0
sg30
I0
sg31
(lp449
sg33
(lp450
sg35
(lp451
g1
(g38
g3
Ntp453
Rp452
(dp454
g41
g0
sg42
g445
sg43
I26
sg44
V1
p455
sg46
I1
sg47
I1
sg48
(dp456
g50
F450.0
sg51
I1
sg52
F112.5
ssg53
(dp457
sbasg55
(lp458
sg57
(lp459
sg59
(dp460
sg61
(dp461
g63
F1.0074845552444458
sg64
F-0.095485210418701172
ssg65
F110.0
sg66
F1.0
sbsg410
g451
ssV9
p462
(dp463
g130
(lp464
g1
(g133
g3
Ntp466
Rp465
(dp467
g136
g0
sg137
g1
(g18
g3
Ntp469
Rp468
(dp470
g21
g0
sg22
I1
sg23
VSEA-GEN
p471
sg25
I9
sg26
I8
sg27
I2
sg28
I0
sg29
I1
sg30
I0
sg31
(lp472
g465
asg33
(lp473
sg35
(lp474
sg55
(lp475
sg57
(lp476
sg59
(dp477
sg61
(dp478
g63
F1.0249999761581421
sg64
F-0.074558116495609283
ssg65
F20.0
sg66
F1.0249999999999999
sbsg149
V1
p479
sg151
g99
sg152
I1
sg153
I1
sg154
VSEA-GEN
p480
sg156
I9
sg157
I8
sg158
I00
sg159
I00
sg160
Nsg161
Nsg162
F2000.0
sg163
F13000.0
sg164
F6.5
sg165
F0.0
sg166
F637.5
sg167
F0.0
sg168
(dp481
g170
F1075.0
sg171
I00
sg172
F1075.0
sg173
F0.0
sg174
F-40.259112999999999
sg175
I1
sg176
F1075.0
sg177
F1075.0
ssg178
g1
(g180
g3
Ntp483
Rp482
(dp484
g183
(lp485
Vgenrou
p486
aI9
aVSEA-GEN
p487
aF20.0
aV1
p488
aV#9
p489
aVmva=2000.0000
p490
aF7.5
aF0.025000000000000001
aF0.5
aF0.059999999999999998
aF6.5
aF0.0
aF2.0
aF1.8999999999999999
aF0.20000000000000001
aF0.69999999999999996
aF0.17999999999999999
aF0.17000000000000001
aF0.050000000000000003
aF0.29999999999999999
aF0.0
aF0.0
aF0.0
aF0.0
asg190
g486
sg191
I9
sg192
g487
sg193
F20.0
sg194
g488
sg195
g489
sg196
F2000.0
sg197
F7.5
sg198
F0.025000000000000001
sg199
F0.5
sg200
F0.059999999999999998
sg201
F6.5
sg202
F0.0
sg203
F2.0
sg204
F1.8999999999999999
sg205
F0.20000000000000001
sg206
F0.69999999999999996
sg207
F0.17999999999999999
sg208
F0.17000000000000001
sg209
F0.050000000000000003
sg210
F0.29999999999999999
sg211
F0.0
sg212
F0.0
sg213
F0.0
sg214
F0.0
sbsg215
I00
sg216
(dp491
sbasg107
g468
sg218
g472
ssV8
p492
(dp493
g107
g1
(g18
g3
Ntp495
Rp494
(dp496
g21
g0
sg22
I1
sg23
VBCH-8
p497
sg25
I8
sg26
I7
sg27
I1
sg28
I1
sg29
I0
sg30
I0
sg31
(lp498
sg33
(lp499
sg35
(lp500
g1
(g38
g3
Ntp502
Rp501
(dp503
g41
g0
sg42
g494
sg43
I8
sg44
V1
p504
sg46
I1
sg47
I1
sg48
(dp505
g50
F4400.0
sg51
I1
sg52
F1100.0
ssg53
(dp506
sbasg55
(lp507
sg57
(lp508
sg59
(dp509
sg61
(dp510
g63
F1.0246536731719971
sg64
F-0.072552181780338287
ssg65
F110.0
sg66
F1.0
sbsg410
g500
ssV104
p511
(dp512
g70
(lp513
g1
(g73
g3
Ntp515
Rp514
(dp516
g76
g0
sg77
g1
(g18
g3
Ntp518
Rp517
(dp519
g21
g0
sg22
I2
sg23
VIDA-104
p520
sg25
I104
sg26
I103
sg27
I1
sg28
I0
sg29
I0
sg30
I1
sg31
(lp521
sg33
(lp522
sg35
(lp523
sg55
g513
sg57
(lp524
sg59
(dp525
sg61
(dp526
g63
F1.032321572303772
sg64
F-0.19757935404777527
ssg65
F345.0
sg66
F1.0
sbsg88
I2
sg89
I1
sg90
V1
p527
sg92
F0.0
sg93
F0.0
sg94
VIDA-104
p528
sg96
I104
sg97
F345.0
sg98
g99
sg100
I-1
sg101
F0.0
sg102
(dp529
g104
I1
ssg105
(dp530
sbasg107
g517
ssV16
p531
(dp532
g107
g1
(g18
g3
Ntp534
Rp533
(dp535
g21
g0
sg22
I1
sg23
VORE-16
p536
sg25
I16
sg26
I15
sg27
I1
sg28
I1
sg29
I0
sg30
I0
sg31
(lp537
sg33
(lp538
sg35
(lp539
g1
(g38
g3
Ntp541
Rp540
(dp542
g41
g0
sg42
g533
sg43
I16
sg44
V1
p543
sg46
I1
sg47
I1
sg48
(dp544
g50
F3600.0
sg51
I1
sg52
F900.0
ssg53
(dp545
sbasg55
(lp546
sg57
(lp547
sg59
(dp548
sg61
(dp549
g63
F0.99455845355987549
sg64
F-0.2329772412776947
ssg65
F110.0
sg66
F1.0
sbsg410
g539
ssV96
p550
(dp551
g70
(lp552
g1
(g73
g3
Ntp554
Rp553
(dp555
g76
g0
sg77
g1
(g18
g3
Ntp557
Rp556
(dp558
g21
g0
sg22
I2
sg23
VCOLO-96
p559
sg25
I96
sg26
I95
sg27
I1
sg28
I0
sg29
I0
sg30
I1
sg31
(lp560
sg33
(lp561
sg35
(lp562
sg55
g552
sg57
(lp563
sg59
(dp564
sg61
(dp565
g63
F1.0140244960784912
sg64
F-0.48481383919715881
ssg65
F345.0
sg66
F1.0
sbsg88
I2
sg89
I1
sg90
V1
p566
sg92
F2.0
sg93
F0.0
sg94
VCOLO-96
p567
sg96
I96
sg97
F345.0
sg98
g99
sg100
I-1
sg101
F0.0
sg102
(dp568
g104
I1
ssg105
(dp569
sbasg107
g556
ssV86
p570
(dp571
g70
(lp572
g1
(g73
g3
Ntp574
Rp573
(dp575
g76
g0
sg77
g1
(g18
g3
Ntp577
Rp576
(dp578
g21
g0
sg22
I1
sg23
VCOI-86
p579
sg25
I86
sg26
I85
sg27
I1
sg28
I0
sg29
I0
sg30
I1
sg31
(lp580
sg33
(lp581
sg35
(lp582
sg55
g572
sg57
(lp583
sg59
(dp584
sg61
(dp585
g63
F1.0617761611938477
sg64
F-0.14944362640380859
ssg65
F500.0
sg66
F1.0
sbsg88
I1
sg89
I1
sg90
V1
p586
sg92
F2.0
sg93
F0.0
sg94
VCOI-86
p587
sg96
I86
sg97
F500.0
sg98
g99
sg100
I-1
sg101
F0.0
sg102
(dp588
g104
I1
ssg105
(dp589
sbasg107
g576
ssV78
p590
(dp591
g107
g1
(g18
g3
Ntp593
Rp592
(dp594
g21
g0
sg22
I1
sg23
VIDA-78
p595
sg25
I78
sg26
I77
sg27
I1
sg28
I1
sg29
I0
sg30
I0
sg31
(lp596
sg33
(lp597
sg35
(lp598
g1
(g38
g3
Ntp600
Rp599
(dp601
g41
g0
sg42
g592
sg43
I78
sg44
V1
p602
sg46
I1
sg47
I1
sg48
(dp603
g50
F2700.0
sg51
I1
sg52
F675.0
ssg53
(dp604
sbasg55
(lp605
sg57
(lp606
sg59
(dp607
sg61
(dp608
g63
F0.99288201332092285
sg64
F-0.4980279803276062
ssg65
F110.0
sg66
F1.0
sbsg410
g598
ssV68
p609
(dp610
g130
(lp611
g1
(g133
g3
Ntp613
Rp612
(dp614
g136
g0
sg137
g1
(g18
g3
Ntp616
Rp615
(dp617
g21
g0
sg22
I2
sg23
VCOLO-GEN
p618
sg25
I68
sg26
I67
sg27
I2
sg28
I0
sg29
I1
sg30
I0
sg31
(lp619
g612
asg33
(lp620
sg35
(lp621
sg55
(lp622
sg57
(lp623
sg59
(dp624
sg61
(dp625
g63
F1.0249999761581421
sg64
F-0.17448917031288147
ssg65
F20.0
sg66
F1.0249999999999999
sbsg149
V1
p626
sg151
g99
sg152
I2
sg153
I1
sg154
VCOLO-GEN
p627
sg156
I68
sg157
I67
sg158
I00
sg159
I00
sg160
Nsg161
Nsg162
F10500.0
sg163
F68250.0
sg164
F6.5
sg165
F0.0
sg166
F4050.0
sg167
F0.0
sg168
(dp628
g170
F8100.0
sg171
I00
sg172
F8100.0
sg173
F0.0
sg174
F310.84055000000001
sg175
I1
sg176
F8100.0
sg177
F8100.0
ssg178
g1
(g180
g3
Ntp630
Rp629
(dp631
g183
(lp632
Vgenrou
p633
aI68
aVCOLO-GEN
p634
aF20.0
aV1
p635
aV#9
p636
aVmva=10500.0000
p637
aF7.5
aF0.025000000000000001
aF0.5
aF0.059999999999999998
aF6.5
aF0.0
aF2.0
aF1.8999999999999999
aF0.20000000000000001
aF0.69999999999999996
aF0.17999999999999999
aF0.17000000000000001
aF0.050000000000000003
aF0.29999999999999999
aF0.0
aF0.0
aF0.0
aF0.0
asg190
g633
sg191
I68
sg192
g634
sg193
F20.0
sg194
g635
sg195
g636
sg196
F10500.0
sg197
F7.5
sg198
F0.025000000000000001
sg199
F0.5
sg200
F0.059999999999999998
sg201
F6.5
sg202
F0.0
sg203
F2.0
sg204
F1.8999999999999999
sg205
F0.20000000000000001
sg206
F0.69999999999999996
sg207
F0.17999999999999999
sg208
F0.17000000000000001
sg209
F0.050000000000000003
sg210
F0.29999999999999999
sg211
F0.0
sg212
F0.0
sg213
F0.0
sg214
F0.0
sbsg215
I00
sg216
(dp638
sbasg107
g615
sg218
g619
ssV58
p639
(dp640
g130
(lp641
g1
(g133
g3
Ntp643
Rp642
(dp644
g136
g0
sg137
g1
(g18
g3
Ntp646
Rp645
(dp647
g21
g0
sg22
I3
sg23
VNEV-G1
p648
sg25
I58
sg26
I57
sg27
I2
sg28
I0
sg29
I1
sg30
I0
sg31
(lp649
g642
asg33
(lp650
sg35
(lp651
sg55
(lp652
sg57
(lp653
sg59
(dp654
sg61
(dp655
g63
F1.0249999761581421
sg64
F-0.39909514784812927
ssg65
F20.0
sg66
F1.0249999999999999
sbsg149
V1
p656
sg151
g99
sg152
I3
sg153
I1
sg154
VNEV-G1
p657
sg156
I58
sg157
I57
sg158
I00
sg159
I00
sg160
Nsg161
Nsg162
F3200.0
sg163
F16000.0
sg164
F5.0
sg165
F3200.0
sg166
F1087.5
sg167
F0.0
sg168
(dp658
g170
F2610.0
sg171
I00
sg172
F2610.0
sg173
F0.0
sg174
F185.76524000000001
sg175
I1
sg176
F2610.0
sg177
F2610.0
ssg178
g1
(g180
g3
Ntp660
Rp659
(dp661
g183
(lp662
Vgenrou
p663
aI58
aVNEV-G1
p664
aF20.0
aV1
p665
aV#9
p666
aVmva=3200.0000
p667
aF6.0
aF0.025000000000000001
aF0.059999999999999998
aF0.040000000000000001
aF5.0
aF0.0
aF1.2
aF0.69999999999999996
aF0.29999999999999999
aF0.23000000000000001
aF0.22
aF0.17000000000000001
aF0.050000000000000003
aF0.29999999999999999
aF0.0
aF0.0
aF0.0
aF0.0
asg190
g663
sg191
I58
sg192
g664
sg193
F20.0
sg194
g665
sg195
g666
sg196
F3200.0
sg197
F6.0
sg198
F0.025000000000000001
sg199
F0.059999999999999998
sg200
F0.040000000000000001
sg201
F5.0
sg202
F0.0
sg203
F1.2
sg204
F0.69999999999999996
sg205
F0.29999999999999999
sg206
F0.23000000000000001
sg207
F0.22
sg208
F0.17000000000000001
sg209
F0.050000000000000003
sg210
F0.29999999999999999
sg211
F0.0
sg212
F0.0
sg213
F0.0
sg214
F0.0
sbsg215
I00
sg216
(dp668
sbasg107
g645
sg218
g649
ssV48
p669
(dp670
g130
(lp671
g1
(g133
g3
Ntp673
Rp672
(dp674
g136
g0
sg137
g1
(g18
g3
Ntp676
Rp675
(dp677
g21
g0
sg22
I3
sg23
VSC-G1
p678
sg25
I48
sg26
I47
sg27
I2
sg28
I0
sg29
I1
sg30
I0
sg31
(lp679
g672
asg33
(lp680
sg35
(lp681
sg55
(lp682
sg57
(lp683
sg59
(dp684
sg61
(dp685
g63
F1.0249999761581421
sg64
F-0.34164664149284363
ssg65
F20.0
sg66
F1.0249999999999999
sbsg149
V1
p686
sg151
g99
sg152
I3
sg153
I1
sg154
VSC-G1
p687
sg156
I48
sg157
I47
sg158
I00
sg159
I00
sg160
Nsg161
Nsg162
F17800.0
sg163
F115700.0
sg164
F6.5
sg165
F17800.0
sg166
F6525.0
sg167
F0.0
sg168
(dp688
g170
F11049.0
sg171
I00
sg172
F11049.0
sg173
F0.0
sg174
F178.89122
sg175
I1
sg176
F11049.0
sg177
F11049.0
ssg178
g1
(g180
g3
Ntp690
Rp689
(dp691
g183
(lp692
Vgenrou
p693
aI48
aVSC-G1
p694
aF20.0
aV1
p695
aV#9
p696
aVmva=17800.0000
p697
aF7.5
aF0.025000000000000001
aF0.5
aF0.059999999999999998
aF6.5
aF0.0
aF2.0
aF1.8999999999999999
aF0.20000000000000001
aF0.69999999999999996
aF0.17999999999999999
aF0.17000000000000001
aF0.050000000000000003
aF0.29999999999999999
aF0.0
aF0.0
aF0.0
aF0.0
asg190
g693
sg191
I48
sg192
g694
sg193
F20.0
sg194
g695
sg195
g696
sg196
F17800.0
sg197
F7.5
sg198
F0.025000000000000001
sg199
F0.5
sg200
F0.059999999999999998
sg201
F6.5
sg202
F0.0
sg203
F2.0
sg204
F1.8999999999999999
sg205
F0.20000000000000001
sg206
F0.69999999999999996
sg207
F0.17999999999999999
sg208
F0.17000000000000001
sg209
F0.050000000000000003
sg210
F0.29999999999999999
sg211
F0.0
sg212
F0.0
sg213
F0.0
sg214
F0.0
sbsg215
I00
sg216
(dp698
sbasg107
g675
sg218
g679
ssV73
p699
(dp700
g107
g1
(g18
g3
Ntp702
Rp701
(dp703
g21
g0
sg22
I2
sg23
VCOLO-73
p704
sg25
I73
sg26
I72
sg27
I1
sg28
I1
sg29
I0
sg30
I0
sg31
(lp705
sg33
(lp706
sg35
(lp707
g1
(g38
g3
Ntp709
Rp708
(dp710
g41
g0
sg42
g701
sg43
I73
sg44
V1
p711
sg46
I2
sg47
I1
sg48
(dp712
g50
F8100.0
sg51
I1
sg52
F2025.0
ssg53
(dp713
sbasg55
(lp714
sg57
(lp715
sg59
(dp716
sg61
(dp717
g63
F0.98493343591690063
sg64
F-0.37723541259765625
ssg65
F110.0
sg66
F1.0
sbsg410
g707
ssV100
p718
(dp719
g70
(lp720
g1
(g73
g3
Ntp722
Rp721
(dp723
g76
g0
sg77
g1
(g18
g3
Ntp725
Rp724
(dp726
g21
g0
sg22
I2
sg23
VUT-100
p727
sg25
I100
sg26
I99
sg27
I1
sg28
I0
sg29
I0
sg30
I1
sg31
(lp728
sg33
(lp729
sg35
(lp730
sg55
g720
sg57
(lp731
sg59
(dp732
sg61
(dp733
g63
F1.0226655006408691
sg64
F-0.21339663863182068
ssg65
F345.0
sg66
F1.0
sbsg88
I2
sg89
I1
sg90
V1
p734
sg92
F0.0
sg93
F0.0
sg94
VUT-100
p735
sg96
I100
sg97
F345.0
sg98
g99
sg100
I-1
sg101
F0.0
sg102
(dp736
g104
I1
ssg105
(dp737
sbasg107
g724
ssV18
p738
(dp739
g107
g1
(g18
g3
Ntp741
Rp740
(dp742
g21
g0
sg22
I1
sg23
VWA-18
p743
sg25
I18
sg26
I17
sg27
I1
sg28
I0
sg29
I0
sg30
I0
sg31
(lp744
sg33
(lp745
sg35
(lp746
sg55
(lp747
sg57
(lp748
sg59
(dp749
sg61
(dp750
g63
F1.0263255834579468
sg64
F-0.0063282232731580734
ssg65
F500.0
sg66
F1.0
sbssV43
p751
(dp752
g107
g1
(g18
g3
Ntp754
Rp753
(dp755
g21
g0
sg22
I3
sg23
VSFO-LOAD
p756
sg25
I43
sg26
I42
sg27
I1
sg28
I1
sg29
I0
sg30
I0
sg31
(lp757
sg33
(lp758
sg35
(lp759
g1
(g38
g3
Ntp761
Rp760
(dp762
g41
g0
sg42
g753
sg43
I43
sg44
V1
p763
sg46
I3
sg47
I1
sg48
(dp764
g50
F13240.0
sg51
I1
sg52
F4060.0
ssg53
(dp765
sbasg55
(lp766
sg57
(lp767
sg59
(dp768
sg61
(dp769
g63
F0.99146580696105957
sg64
F-0.54107046127319336
ssg65
F110.0
sg66
F1.0
sbsg410
g759
ssV33
p770
(dp771
g70
(lp772
g1
(g73
g3
Ntp774
Rp773
(dp775
g76
g0
sg77
g1
(g18
g3
Ntp777
Rp776
(dp778
g21
g0
sg22
I2
sg23
VCOLSTRP
p779
sg25
I33
sg26
I32
sg27
I1
sg28
I0
sg29
I0
sg30
I1
sg31
(lp780
sg33
(lp781
sg35
(lp782
sg55
g772
sg57
(lp783
sg59
(dp784
sg61
(dp785
g63
F1.0324243307113648
sg64
F0.69447076320648193
ssg65
F500.0
sg66
F1.0
sbsg88
I2
sg89
I1
sg90
V1
p786
sg92
F0.0
sg93
F0.0
sg94
VCOLSTRP
p787
sg96
I33
sg97
F500.0
sg98
g99
sg100
I-1
sg101
F0.0
sg102
(dp788
g104
I1
ssg105
(dp789
sbasg107
g776
ssV23
p790
(dp791
g130
(lp792
g1
(g133
g3
Ntp794
Rp793
(dp795
g136
g0
sg137
g1
(g18
g3
Ntp797
Rp796
(dp798
g21
g0
sg22
I1
sg23
VORE-G23
p799
sg25
I23
sg26
I22
sg27
I2
sg28
I0
sg29
I1
sg30
I0
sg31
(lp800
g793
asg33
(lp801
sg35
(lp802
sg55
(lp803
sg57
(lp804
sg59
(dp805
sg61
(dp806
g63
F1.0249999761581421
sg64
F0.069952584803104401
ssg65
F20.0
sg66
F1.0249999999999999
sbsg149
V1
p807
sg151
g99
sg152
I1
sg153
I1
sg154
VORE-G23
p808
sg156
I23
sg157
I22
sg158
I00
sg159
I00
sg160
Nsg161
Nsg162
F5000.0
sg163
F25000.0
sg164
F5.0
sg165
F5000.0
sg166
F1615.0
sg167
F0.0
sg168
(dp809
g170
F3480.0
sg171
I00
sg172
F3480.0
sg173
F0.0
sg174
F-233.53267
sg175
I1
sg176
F3480.0
sg177
F3480.0
ssg178
g1
(g180
g3
Ntp811
Rp810
(dp812
g183
(lp813
Vgenrou
p814
aI23
aVORE-G23
p815
aF20.0
aV1
p816
aV#9
p817
aVmva=5000.0000
p818
aF6.0
aF0.025000000000000001
aF0.059999999999999998
aF0.040000000000000001
aF5.0
aF0.0
aF1.2
aF0.29999999999999999
aF0.29999999999999999
aF0.23000000000000001
aF0.22
aF0.17000000000000001
aF0.050000000000000003
aF0.29999999999999999
aF0.0
aF0.0
aF0.0
aF0.0
asg190
g814
sg191
I23
sg192
g815
sg193
F20.0
sg194
g816
sg195
g817
sg196
F5000.0
sg197
F6.0
sg198
F0.025000000000000001
sg199
F0.059999999999999998
sg200
F0.040000000000000001
sg201
F5.0
sg202
F0.0
sg203
F1.2
sg204
F0.29999999999999999
sg205
F0.29999999999999999
sg206
F0.23000000000000001
sg207
F0.22
sg208
F0.17000000000000001
sg209
F0.050000000000000003
sg210
F0.29999999999999999
sg211
F0.0
sg212
F0.0
sg213
F0.0
sg214
F0.0
sbsg215
I00
sg216
(dp819
sbasg107
g796
sg218
g800
ssV13
p820
(dp821
g107
g1
(g18
g3
Ntp823
Rp822
(dp824
g21
g0
sg22
I1
sg23
VLONGVIEW
p825
sg25
I13
sg26
I12
sg27
I1
sg28
I0
sg29
I0
sg30
I0
sg31
(lp826
sg33
(lp827
sg35
(lp828
sg55
(lp829
sg57
(lp830
sg59
(dp831
sg61
(dp832
g63
F1.0228989124298096
sg64
F0.0080725504085421562
ssg65
F500.0
sg66
F1.0
sbssV28
p833
(dp834
g70
(lp835
g1
(g73
g3
Ntp837
Rp836
(dp838
g76
g0
sg77
g1
(g18
g3
Ntp840
Rp839
(dp841
g21
g0
sg22
I1
sg23
VBOUNDARY
p842
sg25
I28
sg26
I27
sg27
I1
sg28
I0
sg29
I0
sg30
I1
sg31
(lp843
sg33
(lp844
sg35
(lp845
sg55
g835
sg57
(lp846
sg59
(dp847
sg61
(dp848
g63
F1.0157957077026367
sg64
F0.11523571610450745
ssg65
F500.0
sg66
F1.0
sbsg88
I1
sg89
I1
sg90
V1
p849
sg92
F6.9375
sg93
F0.0
sg94
VBOUNDARY
p850
sg96
I28
sg97
F500.0
sg98
g99
sg100
I-1
sg101
F0.0
sg102
(dp851
g104
I1
ssg105
(dp852
sbasg107
g839
ssV38
p853
(dp854
g70
(lp855
g1
(g73
g3
Ntp857
Rp856
(dp858
g76
g0
sg77
g1
(g18
g3
Ntp860
Rp859
(dp861
g21
g0
sg22
I3
sg23
VCOI-38
p862
sg25
I38
sg26
I37
sg27
I1
sg28
I0
sg29
I0
sg30
I1
sg31
(lp863
sg33
(lp864
sg35
(lp865
sg55
g855
sg57
(lp866
sg59
(dp867
sg61
(dp868
g63
F1.0383193492889404
sg64
F-0.29249569773674011
ssg65
F500.0
sg66
F1.0
sbsg88
I3
sg89
I1
sg90
V1
p869
sg92
F0.0
sg93
F0.0
sg94
VCOI-38
p870
sg96
I38
sg97
F500.0
sg98
g99
sg100
I-1
sg101
F0.0
sg102
(dp871
g104
I1
ssg105
(dp872
sbasg107
g859
ssV53
p873
(dp874
g130
(lp875
g1
(g133
g3
Ntp877
Rp876
(dp878
g136
g0
sg137
g1
(g18
g3
Ntp880
Rp879
(dp881
g21
g0
sg22
I3
sg23
VSDG-GEN
p882
sg25
I53
sg26
I52
sg27
I2
sg28
I0
sg29
I1
sg30
I0
sg31
(lp883
g876
asg33
(lp884
sg35
(lp885
sg55
(lp886
sg57
(lp887
sg59
(dp888
sg61
(dp889
g63
F1.0249999761581421
sg64
F-0.82327032089233398
ssg65
F20.0
sg66
F1.0249999999999999
sbsg149
V1
p890
sg151
g99
sg152
I3
sg153
I1
sg154
VSDG-GEN
p891
sg156
I53
sg157
I52
sg158
I00
sg159
I00
sg160
Nsg161
Nsg162
F3500.0
sg163
F22750.0
sg164
F6.5
sg165
F3500.0
sg166
F1305.0
sg167
F0.0
sg168
(dp892
g170
F435.0
sg171
I00
sg172
F435.0
sg173
F0.0
sg174
F142.75604000000001
sg175
I1
sg176
F435.0
sg177
F435.0
ssg178
g1
(g180
g3
Ntp894
Rp893
(dp895
g183
(lp896
Vgenrou
p897
aI53
aVSDG-GEN
p898
aF20.0
aV1
p899
aV#9
p900
aVmva=3500.0000
p901
aF7.5
aF0.025000000000000001
aF0.5
aF0.059999999999999998
aF6.5
aF0.0
aF2.0
aF1.8999999999999999
aF0.20000000000000001
aF0.69999999999999996
aF0.17999999999999999
aF0.17000000000000001
aF0.050000000000000003
aF0.29999999999999999
aF0.0
aF0.0
aF0.0
aF0.0
asg190
g897
sg191
I53
sg192
g898
sg193
F20.0
sg194
g899
sg195
g900
sg196
F3500.0
sg197
F7.5
sg198
F0.025000000000000001
sg199
F0.5
sg200
F0.059999999999999998
sg201
F6.5
sg202
F0.0
sg203
F2.0
sg204
F1.8999999999999999
sg205
F0.20000000000000001
sg206
F0.69999999999999996
sg207
F0.17999999999999999
sg208
F0.17000000000000001
sg209
F0.050000000000000003
sg210
F0.29999999999999999
sg211
F0.0
sg212
F0.0
sg213
F0.0
sg214
F0.0
sbsg215
I00
sg216
(dp902
sbasg107
g879
sg218
g883
ssV63
p903
(dp904
g70
(lp905
g1
(g73
g3
Ntp907
Rp906
(dp908
g76
g0
sg77
g1
(g18
g3
Ntp910
Rp909
(dp911
g21
g0
sg22
I3
sg23
VPHX-63
p912
sg25
I63
sg26
I62
sg27
I1
sg28
I0
sg29
I0
sg30
I1
sg31
(lp913
sg33
(lp914
sg35
(lp915
sg55
g905
sg57
(lp916
sg59
(dp917
sg61
(dp918
g63
F1.0180838108062744
sg64
F-0.45261555910110474
ssg65
F500.0
sg66
F1.0
sbsg88
I3
sg89
I1
sg90
V1
p919
sg92
F40.150002000000001
sg93
F0.0
sg94
VPHX-63
p920
sg96
I63
sg97
F500.0
sg98
g99
sg100
I-1
sg101
F0.0
sg102
(dp921
g389
I1
ssg105
(dp922
sbasg107
g909
ssV88
p923
(dp924
g70
(lp925
g1
(g73
g3
Ntp927
Rp926
(dp928
g76
g0
sg77
g1
(g18
g3
Ntp930
Rp929
(dp931
g21
g0
sg22
I1
sg23
VCOI-88
p932
sg25
I88
sg26
I87
sg27
I1
sg28
I0
sg29
I0
sg30
I1
sg31
(lp933
sg33
(lp934
sg35
(lp935
sg55
g925
sg57
(lp936
sg59
(dp937
sg61
(dp938
g63
F1.0609251260757446
sg64
F-0.17641480267047882
ssg65
F500.0
sg66
F1.0
sbsg88
I1
sg89
I1
sg90
V1
p939
sg92
F3.0
sg93
F0.0
sg94
VCOI-88
p940
sg96
I88
sg97
F500.0
sg98
g99
sg100
I-1
sg101
F0.0
sg102
(dp941
g104
I1
ssg105
(dp942
sbasg107
g929
ssV98
p943
(dp944
g16
g1
(g18
g3
Ntp946
Rp945
(dp947
g21
g0
sg22
I3
sg23
VAZ-98
p948
sg25
I98
sg26
I97
sg27
I1
sg28
I0
sg29
I0
sg30
I0
sg31
(lp949
sg33
(lp950
sg35
(lp951
sg55
(lp952
sg57
(lp953
sg59
(dp954
sg61
(dp955
g63
F1.0179088115692139
sg64
F-0.39542102813720703
ssg65
F500.0
sg66
F1.0
sbssV93
p956
(dp957
g16
g1
(g18
g3
Ntp959
Rp958
(dp960
g21
g0
sg22
I3
sg23
VAZ-93
p961
sg25
I93
sg26
I92
sg27
I1
sg28
I0
sg29
I0
sg30
I0
sg31
(lp962
sg33
(lp963
sg35
(lp964
sg55
(lp965
sg57
(lp966
sg59
(dp967
sg61
(dp968
g63
F1.0201736688613892
sg64
F-0.47265389561653137
ssg65
F500.0
sg66
F1.0
sbssV83
p969
(dp970
g70
(lp971
g1
(g73
g3
Ntp973
Rp972
(dp974
g76
g0
sg77
g1
(g18
g3
Ntp976
Rp975
(dp977
g21
g0
sg22
I2
sg23
VMNT-83
p978
sg25
I83
sg26
I82
sg27
I1
sg28
I0
sg29
I0
sg30
I1
sg31
(lp979
sg33
(lp980
sg35
(lp981
sg55
g971
sg57
(lp982
sg59
(dp983
sg61
(dp984
g63
F1.0938961505889893
sg64
F0.41040724515914917
ssg65
F500.0
sg66
F1.0
sbsg88
I2
sg89
I1
sg90
V1
p985
sg92
F7.0
sg93
F0.0
sg94
VMNT-83
p986
sg96
I83
sg97
F500.0
sg98
g99
sg100
I-1
sg101
F0.0
sg102
(dp987
g104
I1
ssg105
(dp988
sbasg107
g975
ssV105
p989
(dp990
g70
(lp991
g1
(g73
g3
Ntp993
Rp992
(dp994
g76
g0
sg77
g1
(g18
g3
Ntp996
Rp995
(dp997
g21
g0
sg22
I2
sg23
VIDA-105
p998
sg25
I105
sg26
I104
sg27
I1
sg28
I0
sg29
I0
sg30
I1
sg31
(lp999
sg33
(lp1000
sg35
(lp1001
sg55
g991
sg57
(lp1002
sg59
(dp1003
sg61
(dp1004
g63
F1.0472677946090698
sg64
F-0.19073811173439026
ssg65
F500.0
sg66
F1.0
sbsg88
I2
sg89
I1
sg90
V1
p1005
sg92
F1.0
sg93
F0.0
sg94
VIDA-105
p1006
sg96
I105
sg97
F500.0
sg98
g99
sg100
I-1
sg101
F0.0
sg102
(dp1007
g104
I1
ssg105
(dp1008
sbasg107
g995
ssV70
p1009
(dp1010
g107
g1
(g18
g3
Ntp1012
Rp1011
(dp1013
g21
g0
sg22
I2
sg23
VSLC-LOAD
p1014
sg25
I70
sg26
I69
sg27
I1
sg28
I1
sg29
I0
sg30
I0
sg31
(lp1015
sg33
(lp1016
sg35
(lp1017
g1
(g38
g3
Ntp1019
Rp1018
(dp1020
g41
g0
sg42
g1011
sg43
I70
sg44
V1
p1021
sg46
I2
sg47
I1
sg48
(dp1022
g50
F5850.0
sg51
I1
sg52
F1462.5
ssg53
(dp1023
sbasg55
(lp1024
sg57
(lp1025
sg59
(dp1026
sg61
(dp1027
g63
F0.99902188777923584
sg64
F-0.35067126154899597
ssg65
F110.0
sg66
F1.0
sbsg410
g1017
ssV60
p1028
(dp1029
g130
(lp1030
g1
(g133
g3
Ntp1032
Rp1031
(dp1033
g136
g0
sg137
g1
(g18
g3
Ntp1035
Rp1034
(dp1036
g21
g0
sg22
I3
sg23
VPV-60
p1037
sg25
I60
sg26
I59
sg27
I2
sg28
I0
sg29
I1
sg30
I0
sg31
(lp1038
g1031
asg33
(lp1039
sg35
(lp1040
sg55
(lp1041
sg57
(lp1042
sg59
(dp1043
sg61
(dp1044
g63
F1.0249999761581421
sg64
F-0.23832128942012787
ssg65
F20.0
sg66
F1.0249999999999999
sbsg149
V1
p1045
sg151
g99
sg152
I3
sg153
I1
sg154
VPV-60
p1046
sg156
I60
sg157
I59
sg158
I00
sg159
I00
sg160
Nsg161
Nsg162
F4700.0
sg163
F30550.0
sg164
F6.5
sg165
F0.0
sg166
F1890.0
sg167
F0.0
sg168
(dp1047
g170
F4230.0
sg171
I00
sg172
F4230.0
sg173
F0.0
sg174
F429.81592000000001
sg175
I1
sg176
F4230.0
sg177
F4230.0
ssg178
g1
(g180
g3
Ntp1049
Rp1048
(dp1050
g183
(lp1051
Vgenrou
p1052
aI60
aVPV-60
p1053
aF20.0
aV1
p1054
aV#9
p1055
aVmva=4700.0000
p1056
aF7.5
aF0.025000000000000001
aF0.5
aF0.059999999999999998
aF6.5
aF0.0
aF2.0
aF1.8999999999999999
aF0.20000000000000001
aF0.69999999999999996
aF0.17999999999999999
aF0.17000000000000001
aF0.050000000000000003
aF0.29999999999999999
aF0.0
aF0.0
aF0.0
aF0.0
asg190
g1052
sg191
I60
sg192
g1053
sg193
F20.0
sg194
g1054
sg195
g1055
sg196
F4700.0
sg197
F7.5
sg198
F0.025000000000000001
sg199
F0.5
sg200
F0.059999999999999998
sg201
F6.5
sg202
F0.0
sg203
F2.0
sg204
F1.8999999999999999
sg205
F0.20000000000000001
sg206
F0.69999999999999996
sg207
F0.17999999999999999
sg208
F0.17000000000000001
sg209
F0.050000000000000003
sg210
F0.29999999999999999
sg211
F0.0
sg212
F0.0
sg213
F0.0
sg214
F0.0
sbsg215
I00
sg216
(dp1057
sbasg107
g1034
sg218
g1038
ssV50
p1058
(dp1059
g107
g1
(g18
g3
Ntp1061
Rp1060
(dp1062
g21
g0
sg22
I3
sg23
VSC-LOAD
p1063
sg25
I50
sg26
I49
sg27
I1
sg28
I1
sg29
I0
sg30
I0
sg31
(lp1064
sg33
(lp1065
sg35
(lp1066
g1
(g38
g3
Ntp1068
Rp1067
(dp1069
g41
g0
sg42
g1060
sg43
I50
sg44
V1
p1070
sg46
I3
sg47
I1
sg48
(dp1071
g50
F11050.0
sg51
I1
sg52
F2762.5
ssg53
(dp1072
sbasg55
(lp1073
sg57
(lp1074
sg59
(dp1075
sg61
(dp1076
g63
F1.0016785860061646
sg64
F-0.4952358603477478
ssg65
F110.0
sg66
F1.0
sbsg410
g1066
ssV40
p1077
(dp1078
g70
(lp1079
g1
(g73
g3
Ntp1081
Rp1080
(dp1082
g76
g0
sg77
g1
(g18
g3
Ntp1084
Rp1083
(dp1085
g21
g0
sg22
I3
sg23
VCOI-40
p1086
sg25
I40
sg26
I39
sg27
I1
sg28
I0
sg29
I0
sg30
I1
sg31
(lp1087
sg33
(lp1088
sg35
(lp1089
sg55
g1079
sg57
(lp1090
sg59
(dp1091
sg61
(dp1092
g63
F1.0339292287826538
sg64
F-0.36044162511825562
ssg65
F500.0
sg66
F1.0
sbsg88
I3
sg89
I1
sg90
V1
p1093
sg92
F6.0
sg93
F0.0
sg94
VCOI-40
p1094
sg96
I40
sg97
F500.0
sg98
g99
sg100
I-1
sg101
F0.0
sg102
(dp1095
g104
I1
ssg105
(dp1096
sbasg107
g1083
ssV30
p1097
(dp1098
g130
(lp1099
g1
(g133
g3
Ntp1101
Rp1100
(dp1102
g136
g0
sg137
g1
(g18
g3
Ntp1104
Rp1103
(dp1105
g21
g0
sg22
I2
sg23
VMNT-GEN
p1106
sg25
I30
sg26
I29
sg27
I2
sg28
I0
sg29
I1
sg30
I0
sg31
(lp1107
g1100
asg33
(lp1108
sg35
(lp1109
sg55
(lp1110
sg57
(lp1111
sg59
(dp1112
sg61
(dp1113
g63
F1.0249999761581421
sg64
F0.55431985855102539
ssg65
F20.0
sg66
F1.0249999999999999
sbsg149
V1
p1114
sg151
g99
sg152
I2
sg153
I1
sg154
VMNT-GEN
p1115
sg156
I30
sg157
I29
sg158
I00
sg159
I00
sg160
Nsg161
Nsg162
F1800.0
sg163
F9000.0
sg164
F5.0
sg165
F1800.0
sg166
F637.5
sg167
F0.0
sg168
(dp1116
g170
F1275.0
sg171
I00
sg172
F1275.0
sg173
F0.0
sg174
F-138.26931999999999
sg175
I1
sg176
F1275.0
sg177
F1275.0
ssg178
g1
(g180
g3
Ntp1118
Rp1117
(dp1119
g183
(lp1120
Vgenrou
p1121
aI30
aVMNT-GEN
p1122
aF20.0
aV1
p1123
aV#9
p1124
aVmva=1800.0000
p1125
aF6.0
aF0.025000000000000001
aF0.059999999999999998
aF0.040000000000000001
aF5.0
aF0.0
aF1.2
aF0.69999999999999996
aF0.29999999999999999
aF0.23000000000000001
aF0.22
aF0.17000000000000001
aF0.050000000000000003
aF0.29999999999999999
aF0.0
aF0.0
aF0.0
aF0.0
asg190
g1121
sg191
I30
sg192
g1122
sg193
F20.0
sg194
g1123
sg195
g1124
sg196
F1800.0
sg197
F6.0
sg198
F0.025000000000000001
sg199
F0.059999999999999998
sg200
F0.040000000000000001
sg201
F5.0
sg202
F0.0
sg203
F1.2
sg204
F0.69999999999999996
sg205
F0.29999999999999999
sg206
F0.23000000000000001
sg207
F0.22
sg208
F0.17000000000000001
sg209
F0.050000000000000003
sg210
F0.29999999999999999
sg211
F0.0
sg212
F0.0
sg213
F0.0
sg214
F0.0
sbsg215
I00
sg216
(dp1126
sbasg107
g1103
sg218
g1107
ssV20
p1127
(dp1128
g70
(lp1129
g1
(g73
g3
Ntp1131
Rp1130
(dp1132
g76
g0
sg77
g1
(g18
g3
Ntp1134
Rp1133
(dp1135
g21
g0
sg22
I1
sg23
VORE-20
p1136
sg25
I20
sg26
I19
sg27
I1
sg28
I0
sg29
I0
sg30
I1
sg31
(lp1137
sg33
(lp1138
sg35
(lp1139
sg55
g1129
sg57
(lp1140
sg59
(dp1141
sg61
(dp1142
g63
F1.0323108434677124
sg64
F0.057590100914239883
ssg65
F500.0
sg66
F1.0
sbsg88
I1
sg89
I1
sg90
V1
p1143
sg92
F9.25
sg93
F0.0
sg94
VORE-20
p1144
sg96
I20
sg97
F500.0
sg98
g99
sg100
I-1
sg101
F0.0
sg102
(dp1145
g104
I1
ssg105
(dp1146
sbasg107
g1133
ssV10
p1147
(dp1148
g70
(lp1149
g1
(g73
g3
Ntp1151
Rp1150
(dp1152
g76
g0
sg77
g1
(g18
g3
Ntp1154
Rp1153
(dp1155
g21
g0
sg22
I1
sg23
VSEATTLE
p1156
sg25
I10
sg26
I9
sg27
I1
sg28
I0
sg29
I0
sg30
I1
sg31
(lp1157
sg33
(lp1158
sg35
(lp1159
sg55
g1149
sg57
(lp1160
sg59
(dp1161
sg61
(dp1162
g63
F1.0292819738388062
sg64
F-0.13573290407657623
ssg65
F500.0
sg66
F1.0
sbsg88
I1
sg89
I1
sg90
V1
p1163
sg92
F19.5
sg93
F0.0
sg94
VSEATTLE
p1164
sg96
I10
sg97
F500.0
sg98
g99
sg100
I-1
sg101
F0.0
sg102
(dp1165
g104
I1
ssg105
(dp1166
sbasg107
g1153
ssV90
p1167
(dp1168
g371
(lp1169
g1
(g73
g3
Ntp1171
Rp1170
(dp1172
g76
g0
sg77
g1
(g18
g3
Ntp1174
Rp1173
(dp1175
g21
g0
sg22
I3
sg23
VCOI-90
p1176
sg25
I90
sg26
I89
sg27
I1
sg28
I0
sg29
I0
sg30
I1
sg31
(lp1177
sg33
(lp1178
sg35
(lp1179
sg55
g1169
sg57
(lp1180
sg59
(dp1181
sg61
(dp1182
g63
F1.0283677577972412
sg64
F-0.3288930356502533
ssg65
F500.0
sg66
F1.0
sbsg88
I3
sg89
I1
sg90
V1
p1183
sg92
F1.0
sg93
F0.0
sg94
VCOI-90
p1184
sg96
I90
sg97
F500.0
sg98
g99
sg100
I-1
sg101
F0.0
sg102
(dp1185
g389
I1
ssg105
(dp1186
sbasg16
g1173
ssV80
p1187
(dp1188
g70
(lp1189
g1
(g73
g3
Ntp1191
Rp1190
(dp1192
g76
g0
sg77
g1
(g18
g3
Ntp1194
Rp1193
(dp1195
g21
g0
sg22
I1
sg23
VBCH-80
p1196
sg25
I80
sg26
I79
sg27
I1
sg28
I0
sg29
I0
sg30
I1
sg31
(lp1197
sg33
(lp1198
sg35
(lp1199
sg55
g1189
sg57
(lp1200
sg59
(dp1201
sg61
(dp1202
g63
F1.0261210203170776
sg64
F0.18263667821884155
ssg65
F500.0
sg66
F1.0
sbsg88
I1
sg89
I1
sg90
V1
p1203
sg92
F2.0
sg93
F0.0
sg94
VBCH-80
p1204
sg96
I80
sg97
F500.0
sg98
g99
sg100
I-1
sg101
F0.0
sg102
(dp1205
g104
I1
ssg105
(dp1206
sbasg107
g1193
ssV101
p1207
(dp1208
g70
(lp1209
g1
(g73
g3
Ntp1211
Rp1210
(dp1212
g76
g0
sg77
g1
(g18
g3
Ntp1214
Rp1213
(dp1215
g21
g0
sg22
I2
sg23
VIDA-101
p1216
sg25
I101
sg26
I100
sg27
I1
sg28
I0
sg29
I0
sg30
I1
sg31
(lp1217
sg33
(lp1218
sg35
(lp1219
sg55
g1209
sg57
(lp1220
sg59
(dp1221
sg61
(dp1222
g63
F1.0268548727035523
sg64
F-0.1639913022518158
ssg65
F345.0
sg66
F1.0
sbsg88
I2
sg89
I1
sg90
V1
p1223
sg92
F2.0
sg93
F0.0
sg94
VIDA-101
p1224
sg96
I101
sg97
F345.0
sg98
g99
sg100
I-1
sg101
F0.0
sg102
(dp1225
g104
I1
ssg105
(dp1226
sbasg107
g1213
ssV108
p1227
(dp1228
g70
(lp1229
g1
(g73
g3
Ntp1231
Rp1230
(dp1232
g76
g0
sg77
g1
(g18
g3
Ntp1234
Rp1233
(dp1235
g21
g0
sg22
I2
sg23
VNEV-108
p1236
sg25
I108
sg26
I107
sg27
I1
sg28
I0
sg29
I0
sg30
I1
sg31
(lp1237
sg33
(lp1238
sg35
(lp1239
sg55
g1229
sg57
(lp1240
sg59
(dp1241
sg61
(dp1242
g63
F1.0271298885345459
sg64
F-0.29873016476631165
ssg65
F345.0
sg66
F1.0
sbsg88
I2
sg89
I1
sg90
V1
p1243
sg92
F5.5
sg93
F0.0
sg94
VNEV-108
p1244
sg96
I108
sg97
F345.0
sg98
g99
sg100
I-1
sg101
F0.0
sg102
(dp1245
g104
I1
ssg105
(dp1246
sbasg107
g1233
ssV116
p1247
(dp1248
g16
g1
(g18
g3
Ntp1250
Rp1249
(dp1251
g21
g0
sg22
I3
sg23
VCAL-116
p1252
sg25
I116
sg26
I115
sg27
I1
sg28
I0
sg29
I0
sg30
I0
sg31
(lp1253
sg33
(lp1254
sg35
(lp1255
sg55
(lp1256
sg57
(lp1257
sg59
(dp1258
sg61
(dp1259
g63
F1.0186163187026978
sg64
F-0.5855986475944519
ssg65
F500.0
sg66
F1.0
sbssV102
p1260
(dp1261
g70
(lp1262
g1
(g73
g3
Ntp1264
Rp1263
(dp1265
g76
g0
sg77
g1
(g18
g3
Ntp1267
Rp1266
(dp1268
g21
g0
sg22
I2
sg23
VIDA-102
p1269
sg25
I102
sg26
I101
sg27
I1
sg28
I0
sg29
I0
sg30
I1
sg31
(lp1270
sg33
(lp1271
sg35
(lp1272
sg55
g1262
sg57
(lp1273
sg59
(dp1274
sg61
(dp1275
g63
F1.035680890083313
sg64
F-0.20832383632659912
ssg65
F230.0
sg66
F1.0
sbsg88
I2
sg89
I1
sg90
V1
p1276
sg92
F3.0
sg93
F0.0
sg94
VIDA-102
p1277
sg96
I102
sg97
F230.0
sg98
g99
sg100
I-1
sg101
F0.0
sg102
(dp1278
g104
I1
ssg105
(dp1279
sbasg107
g1266
ssV109
p1280
(dp1281
g107
g1
(g18
g3
Ntp1283
Rp1282
(dp1284
g21
g0
sg22
I2
sg23
VNEV-109
p1285
sg25
I109
sg26
I108
sg27
I1
sg28
I1
sg29
I0
sg30
I0
sg31
(lp1286
sg33
(lp1287
sg35
(lp1288
g1
(g38
g3
Ntp1290
Rp1289
(dp1291
g41
g0
sg42
g1282
sg43
I109
sg44
V1
p1292
sg46
I2
sg47
I1
sg48
(dp1293
g50
F1400.0
sg51
I1
sg52
F350.0
ssg53
(dp1294
sbasg55
(lp1295
sg57
(lp1296
sg59
(dp1297
sg61
(dp1298
g63
F1.0074055194854736
sg64
F-0.36643195152282715
ssg65
F110.0
sg66
F1.0
sbsg410
g1288
ssV120
p1299
(dp1300
g107
g1
(g18
g3
Ntp1302
Rp1301
(dp1303
g21
g0
sg22
I1
sg23
VALB-LOAD
p1304
sg25
I120
sg26
I119
sg27
I1
sg28
I1
sg29
I0
sg30
I0
sg31
(lp1305
sg33
(lp1306
sg35
(lp1307
g1
(g38
g3
Ntp1309
Rp1308
(dp1310
g41
g0
sg42
g1301
sg43
I120
sg44
V1
p1311
sg46
I1
sg47
I1
sg48
(dp1312
g50
F8200.0
sg51
I1
sg52
F1925.0
ssg53
(dp1313
sbasg55
(lp1314
sg57
(lp1315
sg59
(dp1316
sg61
(dp1317
g63
F0.99487191438674927
sg64
F0.6203773021697998
ssg65
F110.0
sg66
F1.0
sbsg410
g1307
ssV75
p1318
(dp1319
g70
(lp1320
g1
(g73
g3
Ntp1322
Rp1321
(dp1323
g76
g0
sg77
g1
(g18
g3
Ntp1325
Rp1324
(dp1326
g21
g0
sg22
I2
sg23
VWYO-75
p1327
sg25
I75
sg26
I74
sg27
I1
sg28
I0
sg29
I0
sg30
I1
sg31
(lp1328
sg33
(lp1329
sg35
(lp1330
sg55
g1320
sg57
(lp1331
sg59
(dp1332
sg61
(dp1333
g63
F1.0244030952453613
sg64
F0.10768748074769974
ssg65
F345.0
sg66
F1.0
sbsg88
I2
sg89
I1
sg90
V1
p1334
sg92
F0.0
sg93
F0.0
sg94
VWYO-75
p1335
sg96
I75
sg97
F345.0
sg98
g99
sg100
I-1
sg101
F0.0
sg102
(dp1336
g104
I1
ssg105
(dp1337
sbasg107
g1324
ssV55
p1338
(dp1339
g107
g1
(g18
g3
Ntp1341
Rp1340
(dp1342
g21
g0
sg22
I3
sg23
VSDG-55
p1343
sg25
I55
sg26
I54
sg27
I1
sg28
I1
sg29
I0
sg30
I0
sg31
(lp1344
sg33
(lp1345
sg35
(lp1346
g1
(g38
g3
Ntp1348
Rp1347
(dp1349
g41
g0
sg42
g1340
sg43
I55
sg44
V1
p1350
sg46
I3
sg47
I1
sg48
(dp1351
g50
F3485.0
sg51
I1
sg52
F871.25
ssg53
(dp1352
sbasg55
(lp1353
sg57
(lp1354
sg59
(dp1355
sg61
(dp1356
g63
F0.99540048837661743
sg64
F-0.92132186889648438
ssg65
F110.0
sg66
F1.0
sbsg410
g1346
ssV45
p1357
(dp1358
g130
(lp1359
g1
(g133
g3
Ntp1361
Rp1360
(dp1362
g136
g0
sg137
g1
(g18
g3
Ntp1364
Rp1363
(dp1365
g21
g0
sg22
I3
sg23
VSC-G3
p1366
sg25
I45
sg26
I44
sg27
I2
sg28
I0
sg29
I1
sg30
I0
sg31
(lp1367
g1360
asg33
(lp1368
sg35
(lp1369
sg55
(lp1370
sg57
(lp1371
sg59
(dp1372
sg61
(dp1373
g63
F1.0249999761581421
sg64
F-0.2491573840379715
ssg65
F20.0
sg66
F1.0249999999999999
sbsg149
V1
p1374
sg151
g99
sg152
I3
sg153
I1
sg154
VSC-G3
p1375
sg156
I45
sg157
I44
sg158
I00
sg159
I00
sg160
Nsg161
Nsg162
F3500.0
sg163
F22750.0
sg164
F6.5
sg165
F3500.0
sg166
F1305.0
sg167
F0.0
sg168
(dp1376
g170
F2610.0
sg171
I00
sg172
F2610.0
sg173
F0.0
sg174
F95.463736999999995
sg175
I1
sg176
F2610.0
sg177
F2610.0
ssg178
g1
(g180
g3
Ntp1378
Rp1377
(dp1379
g183
(lp1380
Vgenrou
p1381
aI45
aVSC-G3
p1382
aF20.0
aV1
p1383
aV#9
p1384
aVmva=3500.0000
p1385
aF7.5
aF0.025000000000000001
aF0.5
aF0.059999999999999998
aF6.5
aF0.0
aF2.0
aF1.8999999999999999
aF0.20000000000000001
aF0.69999999999999996
aF0.17999999999999999
aF0.17000000000000001
aF0.050000000000000003
aF0.29999999999999999
aF0.0
aF0.0
aF0.0
aF0.0
asg190
g1381
sg191
I45
sg192
g1382
sg193
F20.0
sg194
g1383
sg195
g1384
sg196
F3500.0
sg197
F7.5
sg198
F0.025000000000000001
sg199
F0.5
sg200
F0.059999999999999998
sg201
F6.5
sg202
F0.0
sg203
F2.0
sg204
F1.8999999999999999
sg205
F0.20000000000000001
sg206
F0.69999999999999996
sg207
F0.17999999999999999
sg208
F0.17000000000000001
sg209
F0.050000000000000003
sg210
F0.29999999999999999
sg211
F0.0
sg212
F0.0
sg213
F0.0
sg214
F0.0
sbsg215
I00
sg216
(dp1386
sbasg107
g1363
sg218
g1367
ssV35
p1387
(dp1388
g70
(lp1389
g1
(g73
g3
Ntp1391
Rp1390
(dp1392
g76
g0
sg77
g1
(g18
g3
Ntp1394
Rp1393
(dp1395
g21
g0
sg22
I1
sg23
VORE-35
p1396
sg25
I35
sg26
I34
sg27
I1
sg28
I0
sg29
I0
sg30
I1
sg31
(lp1397
sg33
(lp1398
sg35
(lp1399
sg55
g1389
sg57
(lp1400
sg59
(dp1401
sg61
(dp1402
g63
F1.0483500957489014
sg64
F-0.21061679720878601
ssg65
F500.0
sg66
F1.0
sbsg88
I1
sg89
I1
sg90
V1
p1403
sg92
F6.25
sg93
F0.0
sg94
VORE-35
p1404
sg96
I35
sg97
F500.0
sg98
g99
sg100
I-1
sg101
F0.0
sg102
(dp1405
g104
I1
ssg105
(dp1406
sbasg107
g1393
ssV25
p1407
(dp1408
g130
(lp1409
g1
(g133
g3
Ntp1411
Rp1410
(dp1412
g136
g0
sg137
g1
(g18
g3
Ntp1414
Rp1413
(dp1415
g21
g0
sg22
I1
sg23
VORE-G25
p1416
sg25
I25
sg26
I24
sg27
I2
sg28
I0
sg29
I1
sg30
I0
sg31
(lp1417
g1410
asg33
(lp1418
sg35
(lp1419
sg55
(lp1420
sg57
(lp1421
sg59
(dp1422
sg61
(dp1423
g63
F1.0249999761581421
sg64
F0.080826327204704285
ssg65
F20.0
sg66
F1.0249999999999999
sbsg149
V1
p1424
sg151
g99
sg152
I1
sg153
I1
sg154
VORE-G25
p1425
sg156
I25
sg157
I24
sg158
I00
sg159
I00
sg160
Nsg161
Nsg162
F3000.0
sg163
F19500.0
sg164
F6.5
sg165
F0.0
sg166
F1062.5
sg167
F0.0
sg168
(dp1426
g170
F2375.0
sg171
I00
sg172
F2375.0
sg173
F0.0
sg174
F-115.85463
sg175
I1
sg176
F2375.0
sg177
F2375.0
ssg178
g1
(g180
g3
Ntp1428
Rp1427
(dp1429
g183
(lp1430
Vgenrou
p1431
aI25
aVORE-G25
p1432
aF20.0
aV1
p1433
aV#9
p1434
aVmva=3000.0000
p1435
aF7.5
aF0.025000000000000001
aF0.5
aF0.059999999999999998
aF6.5
aF0.0
aF2.0
aF1.8999999999999999
aF0.20000000000000001
aF0.69999999999999996
aF0.17999999999999999
aF0.17000000000000001
aF0.050000000000000003
aF0.29999999999999999
aF0.0
aF0.0
aF0.0
aF0.0
asg190
g1431
sg191
I25
sg192
g1432
sg193
F20.0
sg194
g1433
sg195
g1434
sg196
F3000.0
sg197
F7.5
sg198
F0.025000000000000001
sg199
F0.5
sg200
F0.059999999999999998
sg201
F6.5
sg202
F0.0
sg203
F2.0
sg204
F1.8999999999999999
sg205
F0.20000000000000001
sg206
F0.69999999999999996
sg207
F0.17999999999999999
sg208
F0.17000000000000001
sg209
F0.050000000000000003
sg210
F0.29999999999999999
sg211
F0.0
sg212
F0.0
sg213
F0.0
sg214
F0.0
sbsg215
I00
sg216
(dp1436
sbasg107
g1413
sg218
g1417
ssV15
p1437
(dp1438
g70
(lp1439
g1
(g73
g3
Ntp1441
Rp1440
(dp1442
g76
g0
sg77
g1
(g18
g3
Ntp1444
Rp1443
(dp1445
g21
g0
sg22
I1
sg23
VORE-15
p1446
sg25
I15
sg26
I14
sg27
I1
sg28
I0
sg29
I0
sg30
I1
sg31
(lp1447
sg33
(lp1448
sg35
(lp1449
sg55
g1439
sg57
(lp1450
sg59
(dp1451
sg61
(dp1452
g63
F1.0211988687515259
sg64
F-0.14424695074558258
ssg65
F500.0
sg66
F1.0
sbsg88
I1
sg89
I1
sg90
V1
p1453
sg92
F11.0
sg93
F0.0
sg94
VORE-15
p1454
sg96
I15
sg97
F500.0
sg98
g99
sg100
I-1
sg101
F0.0
sg102
(dp1455
g104
I1
ssg105
(dp1456
sbasg107
g1443
ssV65
p1457
(dp1458
VMachines
p1459
(lp1460
g1
(g133
g3
Ntp1462
Rp1461
(dp1463
g136
g0
sg137
g1
(g18
g3
Ntp1465
Rp1464
(dp1466
g21
g0
sg22
I3
sg23
VAZ-65
p1467
sg25
I65
sg26
I64
sg27
I2
sg28
I0
sg29
I1
sg30
I0
sg31
(lp1468
g1461
asg33
(lp1469
sg35
(lp1470
sg55
(lp1471
sg57
(lp1472
sg59
(dp1473
sg61
(dp1474
g63
F1.0249999761581421
sg64
F-0.22091148793697357
ssg65
F20.0
sg66
F1.0249999999999999
sbsg149
V1
p1475
sg151
g99
sg152
I3
sg153
I1
sg154
VAZ-65
p1476
sg156
I65
sg157
I64
sg158
I00
sg159
I00
sg160
Nsg161
Nsg162
F10000.0
sg163
F65000.0
sg164
F6.5
sg165
F10000.0
sg166
F3825.0
sg167
F0.0
sg168
(dp1477
g170
F6750.0
sg171
I00
sg172
F6750.0
sg173
F0.0
sg174
F449.38616999999999
sg175
I1
sg176
F6750.0
sg177
F6750.0
ssg178
g1
(g180
g3
Ntp1479
Rp1478
(dp1480
g183
(lp1481
Vgenrou
p1482
aI65
aVAZ-65
p1483
aF20.0
aV1
p1484
aV#9
p1485
aVmva=10000.0000
p1486
aF7.5
aF0.025000000000000001
aF0.5
aF0.059999999999999998
aF6.5
aF0.0
aF2.0
aF1.8999999999999999
aF0.20000000000000001
aF0.69999999999999996
aF0.17999999999999999
aF0.17000000000000001
aF0.050000000000000003
aF0.29999999999999999
aF0.0
aF0.0
aF0.0
aF0.0
asg190
g1482
sg191
I65
sg192
g1483
sg193
F20.0
sg194
g1484
sg195
g1485
sg196
F10000.0
sg197
F7.5
sg198
F0.025000000000000001
sg199
F0.5
sg200
F0.059999999999999998
sg201
F6.5
sg202
F0.0
sg203
F2.0
sg204
F1.8999999999999999
sg205
F0.20000000000000001
sg206
F0.69999999999999996
sg207
F0.17999999999999999
sg208
F0.17000000000000001
sg209
F0.050000000000000003
sg210
F0.29999999999999999
sg211
F0.0
sg212
F0.0
sg213
F0.0
sg214
F0.0
sbsg215
I00
sg216
(dp1487
sbasg16
g1464
sVGens
p1488
g1468
ssVNames
p1489
(dp1490
VORE-G22
p1491
I22
sVCOI-87
p1492
I87
sg348
I76
sVLVIEW-GE
p1493
I12
sVORE-G19
p1494
I19
sVSC-G2
p1495
I51
sg1366
I45
sg912
I63
sg678
I48
sVSC-G4
p1496
I47
sVSFO-GEN
p1497
I41
sVSC-113
p1498
I113
sg298
I1
sVCA-39
p1499
I39
sVBCH-81
p1500
I81
sVCA-37
p1501
I37
sg1343
I55
sVSC-99
p1502
I99
sg882
I53
sVSC-91
p1503
I91
sg704
I73
sg1156
I10
sg1106
I30
sg1236
I108
sVSFO-42
p1504
I42
sVBCH-79
p1505
I79
sVLASVEGAS
p1506
I57
sVSLC
p1507
I69
sVMNT-85
p1508
I85
sg1396
I35
sg1446
I15
sVPHX-GEN
p1509
I62
sVSC-115
p1510
I115
sVORE-G15
p1511
I34
sVWA-GEN
p1512
I17
sVCOI-89
p1513
I89
sVSC-49
p1514
I49
sVBRDG-GEN
p1515
I74
sg416
I46
sg1285
I109
sg743
I18
sVALB-106
p1516
I106
sg727
I100
sg1136
I20
sg1269
I102
sg328
I119
sg618
I71
sVORE-111
p1517
I111
sg141
I5
sVALB-GEN
p1518
I118
sg579
I86
sVBDY-GEN
p1519
I29
sVORE-G14
p1520
I14
sg998
I105
sg471
I9
sVIDA-77
p1521
I77
sg595
I78
sg1467
I65
sg379
I66
sg1063
I50
sVCOLS-GEN
p1522
I32
sg24
I112
sg1014
I70
sg1196
I80
sg1216
I101
sg779
I33
sg842
I28
sg520
I104
sVNEV-94
p1523
I94
sg978
I83
sVSC-52
p1524
I52
sg1304
I120
sVFC-67
p1525
I67
sg1176
I90
sg1252
I116
sVMNT-103
p1526
I103
sg1086
I40
sg396
I56
sVCOLO-72
p1527
I72
sVWA-82
p1528
I82
sg448
I26
sg429
I36
sg536
I16
sVSC-114
p1529
I114
sVSEA-LOAD
p1530
I11
sg1416
I25
sg932
I88
sg825
I13
sg862
I38
sVNEV-110
p1531
I110
sg648
I58
sVORE-21
p1532
I21
sg248
I3
sVSDG-54
p1533
I54
sg948
I98
sg1327
I75
sVNEV-107
p1534
I107
sVNEV-G2
p1535
I59
sVAZ-97
p1536
I97
sVAZ-92
p1537
I92
sg961
I93
sVMNT-31
p1538
I31
sg1037
I60
sVPV-61
p1539
I61
sVPHX-LOAD
p1540
I64
sVALB-117
p1541
I117
sVFC-G1
p1542
I95
sg799
I23
sg497
I8
sVMNT-84
p1543
I84
sg278
I2
sg81
I7
sg117
I6
sg228
I4
sg559
I96
sVSFO-44
p1544
I44
sg756
I43
sVJDAY-24
p1545
I24
sVBNDRY-GE
p1546
I27
ssV95
p1547
(dp1548
g16
g1
(g18
g3
Ntp1550
Rp1549
(dp1551
g21
g0
sg22
I3
sg23
g1542
sg25
I95
sg26
I94
sg27
I1
sg28
I1
sg29
I0
sg30
I0
sg31
(lp1552
sg33
(lp1553
sg35
(lp1554
g1
(g38
g3
Ntp1556
Rp1555
(dp1557
g41
g0
sg42
g1549
sg43
I95
sg44
V1
p1558
sg46
I3
sg47
I1
sg48
(dp1559
g50
F2700.0
sg51
I1
sg52
F675.0
ssg53
(dp1560
sbasg55
(lp1561
sg57
(lp1562
sg59
(dp1563
sg61
(dp1564
g63
F0.998829185962677
sg64
F-0.61767566204071045
ssg65
F110.0
sg66
F1.0
sbsg67
g1554
ssV85
p1565
(dp1566
g70
(lp1567
g1
(g73
g3
Ntp1569
Rp1568
(dp1570
g76
g0
sg77
g1
(g18
g3
Ntp1572
Rp1571
(dp1573
g21
g0
sg22
I2
sg23
g1508
sg25
I85
sg26
I84
sg27
I1
sg28
I0
sg29
I0
sg30
I1
sg31
(lp1574
sg33
(lp1575
sg35
(lp1576
sg55
g1567
sg57
(lp1577
sg59
(dp1578
sg61
(dp1579
g63
F1.0748857259750366
sg64
F0.46427080035209656
ssg65
F500.0
sg66
F1.0
sbsg88
I2
sg89
I1
sg90
V1
p1580
sg92
F0.0
sg93
F0.0
sg94
VMNT-85
p1581
sg96
I85
sg97
F500.0
sg98
g99
sg100
I-1
sg101
F0.0
sg102
(dp1582
g104
I1
ssg105
(dp1583
sbasg107
g1571
ssV72
p1584
(dp1585
g70
(lp1586
g1
(g73
g3
Ntp1588
Rp1587
(dp1589
g76
g0
sg77
g1
(g18
g3
Ntp1591
Rp1590
(dp1592
g21
g0
sg22
I2
sg23
g1527
sg25
I72
sg26
I71
sg27
I1
sg28
I0
sg29
I0
sg30
I1
sg31
(lp1593
sg33
(lp1594
sg35
(lp1595
sg55
g1586
sg57
(lp1596
sg59
(dp1597
sg61
(dp1598
g63
F1.0119086503982544
sg64
F-0.2868199348449707
ssg65
F345.0
sg66
F1.0
sbsg88
I2
sg89
I1
sg90
V1
p1599
sg92
F20.25
sg93
F0.0
sg94
VCOLO-72
p1600
sg96
I72
sg97
F345.0
sg98
g99
sg100
I-1
sg101
F0.0
sg102
(dp1601
g104
I1
ssg105
(dp1602
sbasg107
g1590
ssV117
p1603
(dp1604
g107
g1
(g18
g3
Ntp1606
Rp1605
(dp1607
g21
g0
sg22
I1
sg23
g1541
sg25
I117
sg26
I116
sg27
I1
sg28
I0
sg29
I0
sg30
I0
sg31
(lp1608
sg33
(lp1609
sg35
(lp1610
sg55
(lp1611
sg57
(lp1612
sg59
(dp1613
sg61
(dp1614
g63
F1.0191323757171631
sg64
F0.69536346197128296
ssg65
F500.0
sg66
F1.0
sbssV52
p1615
(dp1616
g70
(lp1617
g1
(g73
g3
Ntp1619
Rp1618
(dp1620
g76
g0
sg77
g1
(g18
g3
Ntp1622
Rp1621
(dp1623
g21
g0
sg22
I3
sg23
g1524
sg25
I52
sg26
I51
sg27
I1
sg28
I0
sg29
I0
sg30
I1
sg31
(lp1624
sg33
(lp1625
sg35
(lp1626
sg55
g1617
sg57
(lp1627
sg59
(dp1628
sg61
(dp1629
g63
F1.0232710838317871
sg64
F-0.62374913692474365
ssg65
F230.0
sg66
F1.0
sbsg88
I3
sg89
I1
sg90
V1
p1630
sg92
F2.0
sg93
F0.0
sg94
VSC-52
p1631
sg96
I52
sg97
F230.0
sg98
g99
sg100
I-1
sg101
F0.0
sg102
(dp1632
g389
I1
ssg105
(dp1633
sbasg107
g1621
ssV42
p1634
(dp1635
g70
(lp1636
g1
(g73
g3
Ntp1638
Rp1637
(dp1639
g76
g0
sg77
g1
(g18
g3
Ntp1641
Rp1640
(dp1642
g21
g0
sg22
I3
sg23
g1504
sg25
I42
sg26
I41
sg27
I1
sg28
I0
sg29
I0
sg30
I1
sg31
(lp1643
sg33
(lp1644
sg35
(lp1645
sg55
g1636
sg57
(lp1646
sg59
(dp1647
sg61
(dp1648
g63
F1.0107550621032715
sg64
F-0.48409649729728699
ssg65
F500.0
sg66
F1.0
sbsg88
I3
sg89
I1
sg90
V1
p1649
sg92
F0.0
sg93
F0.0
sg94
VSFO-42
p1650
sg96
I42
sg97
F500.0
sg98
g99
sg100
I-1
sg101
F0.0
sg102
(dp1651
g389
I1
ssg105
(dp1652
sbasg107
g1640
ssV32
p1653
(dp1654
g130
(lp1655
g1
(g133
g3
Ntp1657
Rp1656
(dp1658
g136
g0
sg137
g1
(g18
g3
Ntp1660
Rp1659
(dp1661
g21
g0
sg22
I2
sg23
g1522
sg25
I32
sg26
I31
sg27
I2
sg28
I0
sg29
I1
sg30
I0
sg31
(lp1662
g1656
asg33
(lp1663
sg35
(lp1664
sg55
(lp1665
sg57
(lp1666
sg59
(dp1667
sg61
(dp1668
g63
F1.0249999761581421
sg64
F0.76500225067138672
ssg65
F20.0
sg66
F1.0249999999999999
sbsg149
V1
p1669
sg151
g99
sg152
I2
sg153
I1
sg154
VCOLS-GEN
p1670
sg156
I32
sg157
I31
sg158
I00
sg159
I00
sg160
Nsg161
Nsg162
F2300.0
sg163
F14950.0
sg164
F6.5
sg165
F2300.0
sg166
F964.79998999999998
sg167
F0.0
sg168
(dp1671
g170
F1429.5
sg171
I00
sg172
F1429.5
sg173
F0.0
sg174
F-95.435294999999996
sg175
I1
sg176
F1429.5
sg177
F1429.5
ssg178
g1
(g180
g3
Ntp1673
Rp1672
(dp1674
g183
(lp1675
Vgenrou
p1676
aI32
aVCOLS-GEN
p1677
aF20.0
aV1
p1678
aV#9
p1679
aVmva=2300.0000
p1680
aF7.5
aF0.025000000000000001
aF0.5
aF0.059999999999999998
aF6.5
aF0.0
aF2.0
aF1.8999999999999999
aF0.20000000000000001
aF0.69999999999999996
aF0.17999999999999999
aF0.17000000000000001
aF0.050000000000000003
aF0.29999999999999999
aF0.0
aF0.0
aF0.0
aF0.0
asg190
g1676
sg191
I32
sg192
g1677
sg193
F20.0
sg194
g1678
sg195
g1679
sg196
F2300.0
sg197
F7.5
sg198
F0.025000000000000001
sg199
F0.5
sg200
F0.059999999999999998
sg201
F6.5
sg202
F0.0
sg203
F2.0
sg204
F1.8999999999999999
sg205
F0.20000000000000001
sg206
F0.69999999999999996
sg207
F0.17999999999999999
sg208
F0.17000000000000001
sg209
F0.050000000000000003
sg210
F0.29999999999999999
sg211
F0.0
sg212
F0.0
sg213
F0.0
sg214
F0.0
sbsg215
I00
sg216
(dp1681
sbasg107
g1659
sg218
g1662
ssV22
p1682
(dp1683
g130
(lp1684
g1
(g133
g3
Ntp1686
Rp1685
(dp1687
g136
g0
sg137
g1
(g18
g3
Ntp1689
Rp1688
(dp1690
g21
g0
sg22
I1
sg23
g1491
sg25
I22
sg26
I21
sg27
I2
sg28
I0
sg29
I1
sg30
I0
sg31
(lp1691
g1685
asg33
(lp1692
sg35
(lp1693
sg55
(lp1694
sg57
(lp1695
sg59
(dp1696
sg61
(dp1697
g63
F1.0249999761581421
sg64
F0.17101031541824341
ssg65
F20.0
sg66
F1.0249999999999999
sbsg149
V1
p1698
sg151
g99
sg152
I1
sg153
I1
sg154
VORE-G22
p1699
sg156
I22
sg157
I21
sg158
I00
sg159
I00
sg160
Nsg161
Nsg162
F1230.0
sg163
F7995.0
sg164
F6.5
sg165
F0.0
sg166
F488.70001000000002
sg167
F0.0
sg168
(dp1700
g170
F1227.5
sg171
I00
sg172
F1227.5
sg173
F0.0
sg174
F-7.1242184999999996
sg175
I1
sg176
F1227.5
sg177
F1227.5
ssg178
g1
(g180
g3
Ntp1702
Rp1701
(dp1703
g183
(lp1704
Vgenrou
p1705
aI22
aVORE-G22
p1706
aF20.0
aV1
p1707
aV#9
p1708
aVmva=1230.0000
p1709
aF7.5
aF0.025000000000000001
aF0.5
aF0.059999999999999998
aF6.5
aF0.0
aF2.0
aF1.8999999999999999
aF0.20000000000000001
aF0.69999999999999996
aF0.17999999999999999
aF0.17000000000000001
aF0.050000000000000003
aF0.29999999999999999
aF0.0
aF0.0
aF0.0
aF0.0
asg190
g1705
sg191
I22
sg192
g1706
sg193
F20.0
sg194
g1707
sg195
g1708
sg196
F1230.0
sg197
F7.5
sg198
F0.025000000000000001
sg199
F0.5
sg200
F0.059999999999999998
sg201
F6.5
sg202
F0.0
sg203
F2.0
sg204
F1.8999999999999999
sg205
F0.20000000000000001
sg206
F0.69999999999999996
sg207
F0.17999999999999999
sg208
F0.17000000000000001
sg209
F0.050000000000000003
sg210
F0.29999999999999999
sg211
F0.0
sg212
F0.0
sg213
F0.0
sg214
F0.0
sbsg215
I00
sg216
(dp1710
sbasg107
g1688
sg218
g1691
ssV12
p1711
(dp1712
g130
(lp1713
g1
(g133
g3
Ntp1715
Rp1714
(dp1716
g136
g0
sg137
g1
(g18
g3
Ntp1718
Rp1717
(dp1719
g21
g0
sg22
I1
sg23
g1493
sg25
I12
sg26
I11
sg27
I2
sg28
I0
sg29
I1
sg30
I0
sg31
(lp1720
g1714
asg33
(lp1721
sg35
(lp1722
sg55
(lp1723
sg57
(lp1724
sg59
(dp1725
sg61
(dp1726
g63
F1.0249999761581421
sg64
F0.05730694904923439
ssg65
F20.0
sg66
F1.0249999999999999
sbsg149
V1
p1727
sg151
g99
sg152
I1
sg153
I1
sg154
VLVIEW-GE
p1728
sg156
I12
sg157
I11
sg158
I00
sg159
I00
sg160
Nsg161
Nsg162
F4000.0
sg163
F26000.0
sg164
F6.5
sg165
F0.0
sg166
F1360.0
sg167
F0.0
sg168
(dp1729
g170
F1720.0
sg171
I00
sg172
F1720.0
sg173
F0.0
sg174
F114.13633
sg175
I1
sg176
F1720.0
sg177
F1720.0
ssg178
g1
(g180
g3
Ntp1731
Rp1730
(dp1732
g183
(lp1733
Vgenrou
p1734
aI12
aVLVIEW-GE
p1735
aF20.0
aV1
p1736
aV#9
p1737
aVmva=4000.0000
p1738
aF7.5
aF0.025000000000000001
aF0.5
aF0.059999999999999998
aF6.5
aF0.0
aF2.0
aF1.8999999999999999
aF0.20000000000000001
aF0.69999999999999996
aF0.17999999999999999
aF0.17000000000000001
aF0.050000000000000003
aF0.29999999999999999
aF0.0
aF0.0
aF0.0
aF0.0
asg190
g1734
sg191
I12
sg192
g1735
sg193
F20.0
sg194
g1736
sg195
g1737
sg196
F4000.0
sg197
F7.5
sg198
F0.025000000000000001
sg199
F0.5
sg200
F0.059999999999999998
sg201
F6.5
sg202
F0.0
sg203
F2.0
sg204
F1.8999999999999999
sg205
F0.20000000000000001
sg206
F0.69999999999999996
sg207
F0.17999999999999999
sg208
F0.17000000000000001
sg209
F0.050000000000000003
sg210
F0.29999999999999999
sg211
F0.0
sg212
F0.0
sg213
F0.0
sg214
F0.0
sbsg215
I00
sg216
(dp1739
sbasg107
g1717
sg218
g1720
ssV62
p1740
(dp1741
g130
(lp1742
g1
(g133
g3
Ntp1744
Rp1743
(dp1745
g136
g0
sg137
g1
(g18
g3
Ntp1747
Rp1746
(dp1748
g21
g0
sg22
I3
sg23
g1509
sg25
I62
sg26
I61
sg27
I2
sg28
I0
sg29
I1
sg30
I0
sg31
(lp1749
g1743
asg33
(lp1750
sg35
(lp1751
sg55
(lp1752
sg57
(lp1753
sg59
(dp1754
sg61
(dp1755
g63
F1.0249999761581421
sg64
F-0.34985125064849854
ssg65
F20.0
sg66
F1.0249999999999999
sbsg149
V1
p1756
sg151
g99
sg152
I3
sg153
I1
sg154
VPHX-GEN
p1757
sg156
I62
sg157
I61
sg158
I00
sg159
I00
sg160
Nsg161
Nsg162
F11300.0
sg163
F73450.0
sg164
F6.5
sg165
F11300.0
sg166
F2250.0
sg167
F0.0
sg168
(dp1758
g170
F10080.0
sg171
I00
sg172
F10080.0
sg173
F0.0
sg174
F1185.9087
sg175
I1
sg176
F10080.0
sg177
F10080.0
ssg178
g1
(g180
g3
Ntp1760
Rp1759
(dp1761
g183
(lp1762
Vgenrou
p1763
aI62
aVPHX-GEN
p1764
aF20.0
aV1
p1765
aV#9
p1766
aVmva=11300.0000
p1767
aF7.5
aF0.025000000000000001
aF0.5
aF0.059999999999999998
aF6.5
aF0.0
aF2.0
aF1.8999999999999999
aF0.20000000000000001
aF0.69999999999999996
aF0.17999999999999999
aF0.17000000000000001
aF0.050000000000000003
aF0.29999999999999999
aF0.0
aF0.0
aF0.0
aF0.0
asg190
g1763
sg191
I62
sg192
g1764
sg193
F20.0
sg194
g1765
sg195
g1766
sg196
F11300.0
sg197
F7.5
sg198
F0.025000000000000001
sg199
F0.5
sg200
F0.059999999999999998
sg201
F6.5
sg202
F0.0
sg203
F2.0
sg204
F1.8999999999999999
sg205
F0.20000000000000001
sg206
F0.69999999999999996
sg207
F0.17999999999999999
sg208
F0.17000000000000001
sg209
F0.050000000000000003
sg210
F0.29999999999999999
sg211
F0.0
sg212
F0.0
sg213
F0.0
sg214
F0.0
sbsg215
I00
sg216
(dp1768
sbasg107
g1746
sg218
g1749
ssV92
p1769
(dp1770
g16
g1
(g18
g3
Ntp1772
Rp1771
(dp1773
g21
g0
sg22
I3
sg23
g1537
sg25
I92
sg26
I91
sg27
I1
sg28
I0
sg29
I0
sg30
I0
sg31
(lp1774
sg33
(lp1775
sg35
(lp1776
sg55
(lp1777
sg57
(lp1778
sg59
(dp1779
sg61
(dp1780
g63
F1.0071310997009277
sg64
F-0.51047927141189575
ssg65
F500.0
sg66
F1.0
sbssV82
p1781
(dp1782
g70
(lp1783
g1
(g73
g3
Ntp1785
Rp1784
(dp1786
g76
g0
sg77
g1
(g18
g3
Ntp1788
Rp1787
(dp1789
g21
g0
sg22
I1
sg23
g1528
sg25
I82
sg26
I81
sg27
I1
sg28
I0
sg29
I0
sg30
I1
sg31
(lp1790
sg33
(lp1791
sg35
(lp1792
sg55
g1783
sg57
(lp1793
sg59
(dp1794
sg61
(dp1795
g63
F1.0398658514022827
sg64
F-0.072592034935951233
ssg65
F500.0
sg66
F1.0
sbsg88
I1
sg89
I1
sg90
V1
p1796
sg92
F7.0
sg93
F0.0
sg94
VWA-82
p1797
sg96
I82
sg97
F500.0
sg98
g99
sg100
I-1
sg101
F0.0
sg102
(dp1798
g104
I1
ssg105
(dp1799
sbasg107
g1787
ssV113
p1800
(dp1801
g371
(lp1802
g1
(g73
g3
Ntp1804
Rp1803
(dp1805
g76
g0
sg77
g1
(g18
g3
Ntp1807
Rp1806
(dp1808
g21
g0
sg22
I3
sg23
g1498
sg25
I113
sg26
I112
sg27
I1
sg28
I1
sg29
I0
sg30
I1
sg31
(lp1809
sg33
(lp1810
sg35
(lp1811
g1
(g38
g3
Ntp1813
Rp1812
(dp1814
g41
g0
sg42
g1806
sg43
I113
sg44
V1
p1815
sg46
I3
sg47
I1
sg48
(dp1816
g50
F-1900.0
sg51
I1
sg52
F0.0
ssg53
(dp1817
sbasg55
g1802
sg57
(lp1818
sg59
(dp1819
sg61
(dp1820
g63
F1.0233962535858154
sg64
F-0.67852890491485596
ssg65
F500.0
sg66
F1.0
sbsg88
I3
sg89
I1
sg90
V1
p1821
sg92
F60.9375
sg93
F0.0
sg94
VSC-113
p1822
sg96
I113
sg97
F500.0
sg98
g99
sg100
I-1
sg101
F0.0
sg102
(dp1823
g389
I1
ssg105
(dp1824
sbasg16
g1806
sg67
g1811
ssV77
p1825
(dp1826
g70
(lp1827
g1
(g73
g3
Ntp1829
Rp1828
(dp1830
g76
g0
sg77
g1
(g18
g3
Ntp1832
Rp1831
(dp1833
g21
g0
sg22
I1
sg23
g1521
sg25
I77
sg26
I76
sg27
I1
sg28
I0
sg29
I0
sg30
I1
sg31
(lp1834
sg33
(lp1835
sg35
(lp1836
sg55
g1827
sg57
(lp1837
sg59
(dp1838
sg61
(dp1839
g63
F1.0195776224136353
sg64
F-0.40901470184326172
ssg65
F230.0
sg66
F1.0
sbsg88
I1
sg89
I1
sg90
V1
p1840
sg92
F11.75
sg93
F0.0
sg94
VIDA-77
p1841
sg96
I77
sg97
F230.0
sg98
g99
sg100
I-1
sg101
F0.0
sg102
(dp1842
g104
I1
ssg105
(dp1843
sbasg107
g1831
ssV67
p1844
(dp1845
g371
(lp1846
g1
(g73
g3
Ntp1848
Rp1847
(dp1849
g76
g0
sg77
g1
(g18
g3
Ntp1851
Rp1850
(dp1852
g21
g0
sg22
I3
sg23
g1525
sg25
I67
sg26
I66
sg27
I1
sg28
I0
sg29
I0
sg30
I1
sg31
(lp1853
sg33
(lp1854
sg35
(lp1855
sg55
g1846
sg57
(lp1856
sg59
(dp1857
sg61
(dp1858
g63
F1.0253194570541382
sg64
F-0.52969056367874146
ssg65
F500.0
sg66
F1.0
sbsg88
I3
sg89
I1
sg90
V1
p1859
sg92
F14.75
sg93
F0.0
sg94
VFC-67
p1860
sg96
I67
sg97
F500.0
sg98
g99
sg100
I-1
sg101
F0.0
sg102
(dp1861
g389
I1
ssg105
(dp1862
sbasg16
g1850
ssV57
p1863
(dp1864
g70
(lp1865
g1
(g73
g3
Ntp1867
Rp1866
(dp1868
g76
g0
sg77
g1
(g18
g3
Ntp1870
Rp1869
(dp1871
g21
g0
sg22
I3
sg23
g1506
sg25
I57
sg26
I56
sg27
I1
sg28
I0
sg29
I0
sg30
I1
sg31
(lp1872
sg33
(lp1873
sg35
(lp1874
sg55
g1865
sg57
(lp1875
sg59
(dp1876
sg61
(dp1877
g63
F1.0226713418960571
sg64
F-0.49260231852531433
ssg65
F500.0
sg66
F1.0
sbsg88
I3
sg89
I1
sg90
V1
p1878
sg92
F35.0
sg93
F0.0
sg94
VLASVEGAS
p1879
sg96
I57
sg97
F500.0
sg98
g99
sg100
I-1
sg101
F0.0
sg102
(dp1880
g389
I1
ssg105
(dp1881
sbasg107
g1869
ssV47
p1882
(dp1883
g130
(lp1884
g1
(g133
g3
Ntp1886
Rp1885
(dp1887
g136
g0
sg137
g1
(g18
g3
Ntp1889
Rp1888
(dp1890
g21
g0
sg22
I3
sg23
g1496
sg25
I47
sg26
I46
sg27
I2
sg28
I0
sg29
I1
sg30
I0
sg31
(lp1891
g1885
asg33
(lp1892
sg35
(lp1893
sg55
(lp1894
sg57
(lp1895
sg59
(dp1896
sg61
(dp1897
g63
F1.0249999761581421
sg64
F-0.12466041743755341
ssg65
F20.0
sg66
F1.0249999999999999
sbsg149
V1
p1898
sg151
g99
sg152
I3
sg153
I1
sg154
VSC-G4
p1899
sg156
I47
sg157
I46
sg158
I00
sg159
I00
sg160
Nsg161
Nsg162
F2600.0
sg163
F16900.0
sg164
F6.5
sg165
F0.0
sg166
F957.0
sg167
F0.0
sg168
(dp1900
g170
F1914.0
sg171
I00
sg172
F1914.0
sg173
F0.0
sg174
F163.03353999999999
sg175
I1
sg176
F1914.0
sg177
F1914.0
ssg178
g1
(g180
g3
Ntp1902
Rp1901
(dp1903
g183
(lp1904
Vgenrou
p1905
aI47
aVSC-G4
p1906
aF20.0
aV1
p1907
aV#9
p1908
aVmva=2600.0000
p1909
aF7.5
aF0.025000000000000001
aF0.5
aF0.059999999999999998
aF6.5
aF0.0
aF2.0
aF1.8999999999999999
aF0.20000000000000001
aF0.69999999999999996
aF0.17999999999999999
aF0.17000000000000001
aF0.050000000000000003
aF0.29999999999999999
aF0.0
aF0.0
aF0.0
aF0.0
asg190
g1905
sg191
I47
sg192
g1906
sg193
F20.0
sg194
g1907
sg195
g1908
sg196
F2600.0
sg197
F7.5
sg198
F0.025000000000000001
sg199
F0.5
sg200
F0.059999999999999998
sg201
F6.5
sg202
F0.0
sg203
F2.0
sg204
F1.8999999999999999
sg205
F0.20000000000000001
sg206
F0.69999999999999996
sg207
F0.17999999999999999
sg208
F0.17000000000000001
sg209
F0.050000000000000003
sg210
F0.29999999999999999
sg211
F0.0
sg212
F0.0
sg213
F0.0
sg214
F0.0
sbsg215
I00
sg216
(dp1910
sbasg107
g1888
sg218
g1891
ssV37
p1911
(dp1912
g130
(lp1913
g1
(g133
g3
Ntp1915
Rp1914
(dp1916
g136
g0
sg137
g1
(g18
g3
Ntp1918
Rp1917
(dp1919
g21
g0
sg22
I3
sg23
g1501
sg25
I37
sg26
I36
sg27
I2
sg28
I0
sg29
I1
sg30
I0
sg31
(lp1920
g1914
asg33
(lp1921
sg35
(lp1922
sg55
(lp1923
sg57
(lp1924
sg59
(dp1925
sg61
(dp1926
g63
F1.0249999761581421
sg64
F-0.26337489485740662
ssg65
F20.0
sg66
F1.0249999999999999
sbsg149
V1
p1927
sg151
g99
sg152
I3
sg153
I1
sg154
VCA-37
p1928
sg156
I37
sg157
I36
sg158
I00
sg159
I00
sg160
Nsg161
Nsg162
F3000.0
sg163
F15000.0
sg164
F5.0
sg165
F3000.0
sg166
F1250.0
sg167
F0.0
sg168
(dp1929
g170
F2500.0
sg171
I00
sg172
F2500.0
sg173
F0.0
sg174
F-359.78841999999997
sg175
I1
sg176
F2500.0
sg177
F2500.0
ssg178
g1
(g180
g3
Ntp1931
Rp1930
(dp1932
g183
(lp1933
Vgenrou
p1934
aI37
aVCA-37
p1935
aF20.0
aV1
p1936
aV#9
p1937
aVmva=3000.0000
p1938
aF6.0
aF0.025000000000000001
aF0.059999999999999998
aF0.040000000000000001
aF5.0
aF0.0
aF1.2
aF0.69999999999999996
aF0.29999999999999999
aF0.23000000000000001
aF0.22
aF0.17000000000000001
aF0.050000000000000003
aF0.29999999999999999
aF0.0
aF0.0
aF0.0
aF0.0
asg190
g1934
sg191
I37
sg192
g1935
sg193
F20.0
sg194
g1936
sg195
g1937
sg196
F3000.0
sg197
F6.0
sg198
F0.025000000000000001
sg199
F0.059999999999999998
sg200
F0.040000000000000001
sg201
F5.0
sg202
F0.0
sg203
F1.2
sg204
F0.69999999999999996
sg205
F0.29999999999999999
sg206
F0.23000000000000001
sg207
F0.22
sg208
F0.17000000000000001
sg209
F0.050000000000000003
sg210
F0.29999999999999999
sg211
F0.0
sg212
F0.0
sg213
F0.0
sg214
F0.0
sbsg215
I00
sg216
(dp1939
sbasg107
g1917
sg218
g1920
ssV27
p1940
(dp1941
g130
(lp1942
g1
(g133
g3
Ntp1944
Rp1943
(dp1945
g136
g0
sg137
g1
(g18
g3
Ntp1947
Rp1946
(dp1948
g21
g0
sg22
I1
sg23
g1546
sg25
I27
sg26
I26
sg27
I2
sg28
I0
sg29
I1
sg30
I0
sg31
(lp1949
g1943
asg33
(lp1950
sg35
(lp1951
sg55
(lp1952
sg57
(lp1953
sg59
(dp1954
sg61
(dp1955
g63
F1.0249999761581421
sg64
F0.19696398079395294
ssg65
F20.0
sg66
F1.0249999999999999
sbsg149
V1
p1956
sg151
g99
sg152
I1
sg153
I1
sg154
VBNDRY-GE
p1957
sg156
I27
sg157
I26
sg158
I00
sg159
I00
sg160
Nsg161
Nsg162
F300.0
sg163
F1950.0
sg164
F6.5
sg165
F0.0
sg166
F106.3
sg167
F0.0
sg168
(dp1958
g170
F212.5
sg171
I00
sg172
F212.5
sg173
F0.0
sg174
F32.274403
sg175
I1
sg176
F212.5
sg177
F212.5
ssg178
g1
(g180
g3
Ntp1960
Rp1959
(dp1961
g183
(lp1962
Vgenrou
p1963
aI27
aVBNDRY-GE
p1964
aF20.0
aV1
p1965
aV#9
p1966
aVmva=300.0000
p1967
aF7.5
aF0.025000000000000001
aF0.5
aF0.059999999999999998
aF6.5
aF0.0
aF2.0
aF1.8999999999999999
aF0.20000000000000001
aF0.69999999999999996
aF0.17999999999999999
aF0.17000000000000001
aF0.050000000000000003
aF0.29999999999999999
aF0.0
aF0.0
aF0.0
aF0.0
asg190
g1963
sg191
I27
sg192
g1964
sg193
F20.0
sg194
g1965
sg195
g1966
sg196
F300.0
sg197
F7.5
sg198
F0.025000000000000001
sg199
F0.5
sg200
F0.059999999999999998
sg201
F6.5
sg202
F0.0
sg203
F2.0
sg204
F1.8999999999999999
sg205
F0.20000000000000001
sg206
F0.69999999999999996
sg207
F0.17999999999999999
sg208
F0.17000000000000001
sg209
F0.050000000000000003
sg210
F0.29999999999999999
sg211
F0.0
sg212
F0.0
sg213
F0.0
sg214
F0.0
sbsg215
I00
sg216
(dp1968
sbasg107
g1946
sg218
g1949
ssV17
p1969
(dp1970
g130
(lp1971
g1
(cpsltdsim.systemAgents.SlackAgent
SlackAgent
p1973
g3
Ntp1974
Rp1972
(dp1975
g136
g0
sg137
g1
(g18
g3
Ntp1977
Rp1976
(dp1978
g21
g0
sg22
I1
sg23
g1512
sg25
I17
sg26
I16
sg27
I0
sg28
I0
sg29
I1
sg30
I0
sg31
(lp1979
sg33
(lp1980
g1972
asg35
(lp1981
sg55
(lp1982
sg57
(lp1983
sg59
(dp1984
sg61
(dp1985
g63
F1.0249999761581421
sg64
F0.0
ssg65
F20.0
sg66
F1.0249999999999999
sbsg149
V1
p1986
sg151
g99
sg152
I1
sg153
I1
sg154
VWA-GEN
p1987
sg156
I17
sg157
I16
sg158
I01
sg159
I00
sg160
Nsg161
Nsg162
F8300.0
sg163
F41500.0
sg164
F5.0
sg165
F8300.0
sg166
F2662.6001000000001
sg167
F0.0
sg168
(dp1988
VPe
p1989
F460.38335999999998
sVPm
p1990
F460.38335999999998
sVPref
p1991
F460.38335999999998
sVP0
p1992
F460.38335999999998
sVPe_error
p1993
F0.0
sVSCE
p1994
I0
sVIRPflag
p1995
I00
sVSt
p1996
I1
sVPe_calc
p1997
F460.38335999999998
sVQ
p1998
F-92.509285000000006
ssg178
g1
(g180
g3
Ntp2000
Rp1999
(dp2001
g183
(lp2002
Vgenrou
p2003
aI17
aVWA-GEN
p2004
aF20.0
aV1
p2005
aV#9
p2006
aVmva=8300.0000
p2007
aF6.0
aF0.025000000000000001
aF0.059999999999999998
aF0.040000000000000001
aF5.0
aF0.0
aF1.2
aF0.69999999999999996
aF0.29999999999999999
aF0.23000000000000001
aF0.22
aF0.17000000000000001
aF0.050000000000000003
aF0.29999999999999999
aF0.0
aF0.0
aF0.0
aF0.0
asg190
g2003
sg191
I17
sg192
g2004
sg193
F20.0
sg194
g2005
sg195
g2006
sg196
F8300.0
sg197
F6.0
sg198
F0.025000000000000001
sg199
F0.059999999999999998
sg200
F0.040000000000000001
sg201
F5.0
sg202
F0.0
sg203
F1.2
sg204
F0.69999999999999996
sg205
F0.29999999999999999
sg206
F0.23000000000000001
sg207
F0.22
sg208
F0.17000000000000001
sg209
F0.050000000000000003
sg210
F0.29999999999999999
sg211
F0.0
sg212
F0.0
sg213
F0.0
sg214
F0.0
sbsg215
I00
sg216
(dp2008
sVTol
p2009
I1
sbasg107
g1976
sVSlack
p2010
g1980
ssV114
p2011
(dp2012
g371
(lp2013
g1
(g73
g3
Ntp2015
Rp2014
(dp2016
g76
g0
sg77
g1
(g18
g3
Ntp2018
Rp2017
(dp2019
g21
g0
sg22
I3
sg23
g1529
sg25
I114
sg26
I113
sg27
I1
sg28
I0
sg29
I0
sg30
I1
sg31
(lp2020
sg33
(lp2021
sg35
(lp2022
sg55
g2013
sg57
(lp2023
sg59
(dp2024
sg61
(dp2025
g63
F1.0184030532836914
sg64
F-0.40800490975379944
ssg65
F500.0
sg66
F1.0
sbsg88
I3
sg89
I1
sg90
V1
p2026
sg92
F2.0
sg93
F0.0
sg94
VSC-114
p2027
sg96
I114
sg97
F500.0
sg98
g99
sg100
I-1
sg101
F0.0
sg102
(dp2028
g389
I1
ssg105
(dp2029
sbasg16
g2017
ssV97
p2030
(dp2031
g16
g1
(g18
g3
Ntp2033
Rp2032
(dp2034
g21
g0
sg22
I3
sg23
g1536
sg25
I97
sg26
I96
sg27
I1
sg28
I0
sg29
I0
sg30
I0
sg31
(lp2035
sg33
(lp2036
sg35
(lp2037
sg55
(lp2038
sg57
(lp2039
sg59
(dp2040
sg61
(dp2041
g63
F1.0174021720886231
sg64
F-0.3752550482749939
ssg65
F500.0
sg66
F1.0
sbssV87
p2042
(dp2043
g70
(lp2044
g1
(g73
g3
Ntp2046
Rp2045
(dp2047
g76
g0
sg77
g1
(g18
g3
Ntp2049
Rp2048
(dp2050
g21
g0
sg22
I1
sg23
g1492
sg25
I87
sg26
I86
sg27
I1
sg28
I0
sg29
I0
sg30
I1
sg31
(lp2051
sg33
(lp2052
sg35
(lp2053
sg55
g2044
sg57
(lp2054
sg59
(dp2055
sg61
(dp2056
g63
F1.0643869638442993
sg64
F-0.1889708936214447
ssg65
F500.0
sg66
F1.0
sbsg88
I1
sg89
I1
sg90
V1
p2057
sg92
F3.0
sg93
F0.0
sg94
VCOI-87
p2058
sg96
I87
sg97
F500.0
sg98
g99
sg100
I-1
sg101
F0.0
sg102
(dp2059
g104
I1
ssg105
(dp2060
sbasg107
g2048
ssV106
p2061
(dp2062
g107
g1
(g18
g3
Ntp2064
Rp2063
(dp2065
g21
g0
sg22
I1
sg23
g1516
sg25
I106
sg26
I105
sg27
I1
sg28
I0
sg29
I0
sg30
I0
sg31
(lp2066
sg33
(lp2067
sg35
(lp2068
sg55
(lp2069
sg57
(lp2070
sg59
(dp2071
sg61
(dp2072
g63
F1.0188823938369751
sg64
F0.68332517147064209
ssg65
F500.0
sg66
F1.0
sbssV79
p2073
(dp2074
g70
(lp2075
g1
(g73
g3
Ntp2077
Rp2076
(dp2078
g76
g0
sg77
g1
(g18
g3
Ntp2080
Rp2079
(dp2081
g21
g0
sg22
I1
sg23
g1505
sg25
I79
sg26
I78
sg27
I1
sg28
I0
sg29
I0
sg30
I1
sg31
(lp2082
sg33
(lp2083
sg35
(lp2084
sg55
g2075
sg57
(lp2085
sg59
(dp2086
sg61
(dp2087
g63
F1.0282266139984131
sg64
F0.17685139179229736
ssg65
F500.0
sg66
F1.0
sbsg88
I1
sg89
I1
sg90
V1
p2088
sg92
F3.0
sg93
F0.0
sg94
VBCH-79
p2089
sg96
I79
sg97
F500.0
sg98
g99
sg100
I-1
sg101
F0.0
sg102
(dp2090
g104
I1
ssg105
(dp2091
sbasg107
g2079
ssV69
p2092
(dp2093
g70
(lp2094
g1
(g73
g3
Ntp2096
Rp2095
(dp2097
g76
g0
sg77
g1
(g18
g3
Ntp2099
Rp2098
(dp2100
g21
g0
sg22
I2
sg23
g1507
sg25
I69
sg26
I68
sg27
I1
sg28
I1
sg29
I0
sg30
I1
sg31
(lp2101
sg33
(lp2102
sg35
(lp2103
g1
(g38
g3
Ntp2105
Rp2104
(dp2106
g41
g0
sg42
g2098
sg43
I69
sg44
V1
p2107
sg46
I2
sg47
I1
sg48
(dp2108
g50
F1900.0
sg51
I1
sg52
F0.0
ssg53
(dp2109
sbasg55
g2094
sg57
(lp2110
sg59
(dp2111
sg61
(dp2112
g63
F1.0255192518234253
sg64
F-0.26268067955970764
ssg65
F345.0
sg66
F1.0
sbsg88
I2
sg89
I1
sg90
V1
p2113
sg92
F22.625
sg93
F0.0
sg94
VSLC
p2114
sg96
I69
sg97
F345.0
sg98
g99
sg100
I-1
sg101
F0.0
sg102
(dp2115
g104
I1
ssg105
(dp2116
sbasg107
g2098
sg410
g2103
ssV59
p2117
(dp2118
g130
(lp2119
g1
(g133
g3
Ntp2121
Rp2120
(dp2122
g136
g0
sg137
g1
(g18
g3
Ntp2124
Rp2123
(dp2125
g21
g0
sg22
I3
sg23
g1535
sg25
I59
sg26
I58
sg27
I2
sg28
I0
sg29
I1
sg30
I0
sg31
(lp2126
g2120
asg33
(lp2127
sg35
(lp2128
sg55
(lp2129
sg57
(lp2130
sg59
(dp2131
sg61
(dp2132
g63
F1.0249999761581421
sg64
F-0.40629515051841736
ssg65
F20.0
sg66
F1.0249999999999999
sbsg149
V1
p2133
sg151
g99
sg152
I3
sg153
I1
sg154
VNEV-G2
p2134
sg156
I59
sg157
I58
sg158
I00
sg159
I00
sg160
Nsg161
Nsg162
F5200.0
sg163
F33800.0
sg164
F6.5
sg165
F5200.0
sg166
F1957.5
sg167
F0.0
sg168
(dp2135
g170
F3915.0
sg171
I00
sg172
F3915.0
sg173
F0.0
sg174
F272.46762000000001
sg175
I1
sg176
F3915.0
sg177
F3915.0
ssg178
g1
(g180
g3
Ntp2137
Rp2136
(dp2138
g183
(lp2139
Vgenrou
p2140
aI59
aVNEV-G2
p2141
aF20.0
aV1
p2142
aV#9
p2143
aVmva=5200.0000
p2144
aF7.5
aF0.025000000000000001
aF0.5
aF0.059999999999999998
aF6.5
aF0.0
aF2.0
aF1.8999999999999999
aF0.20000000000000001
aF0.69999999999999996
aF0.17999999999999999
aF0.17000000000000001
aF0.050000000000000003
aF0.29999999999999999
aF0.0
aF0.0
aF0.0
aF0.0
asg190
g2140
sg191
I59
sg192
g2141
sg193
F20.0
sg194
g2142
sg195
g2143
sg196
F5200.0
sg197
F7.5
sg198
F0.025000000000000001
sg199
F0.5
sg200
F0.059999999999999998
sg201
F6.5
sg202
F0.0
sg203
F2.0
sg204
F1.8999999999999999
sg205
F0.20000000000000001
sg206
F0.69999999999999996
sg207
F0.17999999999999999
sg208
F0.17000000000000001
sg209
F0.050000000000000003
sg210
F0.29999999999999999
sg211
F0.0
sg212
F0.0
sg213
F0.0
sg214
F0.0
sbsg215
I00
sg216
(dp2145
sbasg107
g2123
sg218
g2126
ssV49
p2146
(dp2147
g70
(lp2148
g1
(g73
g3
Ntp2150
Rp2149
(dp2151
g76
g0
sg77
g1
(g18
g3
Ntp2153
Rp2152
(dp2154
g21
g0
sg22
I3
sg23
g1514
sg25
I49
sg26
I48
sg27
I1
sg28
I1
sg29
I0
sg30
I1
sg31
(lp2155
sg33
(lp2156
sg35
(lp2157
g1
(g38
g3
Ntp2159
Rp2158
(dp2160
g41
g0
sg42
g2152
sg43
I49
sg44
V1
p2161
sg46
I3
sg47
I1
sg48
(dp2162
g50
F-2850.0
sg51
I1
sg52
F0.0
ssg53
(dp2163
sbasg55
g2148
sg57
(lp2164
sg59
(dp2165
sg61
(dp2166
g63
F1.0263983011245728
sg64
F-0.41249120235443115
ssg65
F500.0
sg66
F1.0
sbsg88
I3
sg89
I1
sg90
V1
p2167
sg92
F52.625
sg93
F0.0
sg94
VSC-49
p2168
sg96
I49
sg97
F500.0
sg98
g99
sg100
I-1
sg101
F0.0
sg102
(dp2169
g389
I1
ssg105
(dp2170
sbasg107
g2152
sg410
g2157
ssV74
p2171
(dp2172
g130
(lp2173
g1
(g133
g3
Ntp2175
Rp2174
(dp2176
g136
g0
sg137
g1
(g18
g3
Ntp2178
Rp2177
(dp2179
g21
g0
sg22
I2
sg23
g1515
sg25
I74
sg26
I73
sg27
I2
sg28
I0
sg29
I1
sg30
I0
sg31
(lp2180
g2174
asg33
(lp2181
sg35
(lp2182
sg55
(lp2183
sg57
(lp2184
sg59
(dp2185
sg61
(dp2186
g63
F1.0249999761581421
sg64
F0.19685208797454834
ssg65
F20.0
sg66
F1.0249999999999999
sbsg149
V1
p2187
sg151
g99
sg152
I2
sg153
I1
sg154
VBRDG-GEN
p2188
sg156
I74
sg157
I73
sg158
I00
sg159
I00
sg160
Nsg161
Nsg162
F2400.0
sg163
F15600.0
sg164
F6.5
sg165
F0.0
sg166
F935.0
sg167
F0.0
sg168
(dp2189
g170
F1870.0
sg171
I00
sg172
F1870.0
sg173
F0.0
sg174
F95.660224999999997
sg175
I1
sg176
F1870.0
sg177
F1870.0
ssg178
g1
(g180
g3
Ntp2191
Rp2190
(dp2192
g183
(lp2193
Vgenrou
p2194
aI74
aVBRDG-GEN
p2195
aF20.0
aV1
p2196
aV#9
p2197
aVmva=2400.0000
p2198
aF7.5
aF0.025000000000000001
aF0.5
aF0.059999999999999998
aF6.5
aF0.0
aF2.0
aF1.8999999999999999
aF0.20000000000000001
aF0.69999999999999996
aF0.17999999999999999
aF0.17000000000000001
aF0.050000000000000003
aF0.29999999999999999
aF0.0
aF0.0
aF0.0
aF0.0
asg190
g2194
sg191
I74
sg192
g2195
sg193
F20.0
sg194
g2196
sg195
g2197
sg196
F2400.0
sg197
F7.5
sg198
F0.025000000000000001
sg199
F0.5
sg200
F0.059999999999999998
sg201
F6.5
sg202
F0.0
sg203
F2.0
sg204
F1.8999999999999999
sg205
F0.20000000000000001
sg206
F0.69999999999999996
sg207
F0.17999999999999999
sg208
F0.17000000000000001
sg209
F0.050000000000000003
sg210
F0.29999999999999999
sg211
F0.0
sg212
F0.0
sg213
F0.0
sg214
F0.0
sbsg215
I00
sg216
(dp2199
sbasg107
g2177
sg218
g2180
ssV29
p2200
(dp2201
g107
g1
(g18
g3
Ntp2203
Rp2202
(dp2204
g21
g0
sg22
I1
sg23
g1519
sg25
I29
sg26
I28
sg27
I1
sg28
I1
sg29
I0
sg30
I0
sg31
(lp2205
sg33
(lp2206
sg35
(lp2207
g1
(g38
g3
Ntp2209
Rp2208
(dp2210
g41
g0
sg42
g2202
sg43
I29
sg44
V1
p2211
sg46
I1
sg47
I1
sg48
(dp2212
g50
F1575.0
sg51
I1
sg52
F393.75
ssg53
(dp2213
sbasg55
(lp2214
sg57
(lp2215
sg59
(dp2216
sg61
(dp2217
g63
F0.98896133899688721
sg64
F0.025530483573675156
ssg65
F110.0
sg66
F1.0
sbsg410
g2207
ssV19
p2218
(dp2219
g130
(lp2220
g1
(g133
g3
Ntp2222
Rp2221
(dp2223
g136
g0
sg137
g1
(g18
g3
Ntp2225
Rp2224
(dp2226
g21
g0
sg22
I1
sg23
g1494
sg25
I19
sg26
I18
sg27
I2
sg28
I0
sg29
I1
sg30
I0
sg31
(lp2227
g2221
asg33
(lp2228
sg35
(lp2229
sg55
(lp2230
sg57
(lp2231
sg59
(dp2232
sg61
(dp2233
g63
F1.0249999761581421
sg64
F0.14590291678905487
ssg65
F20.0
sg66
F1.0249999999999999
sbsg149
V1
p2234
sg151
g99
sg152
I1
sg153
I1
sg154
VORE-G19
p2235
sg156
I19
sg157
I18
sg158
I00
sg159
I00
sg160
Nsg161
Nsg162
F3600.0
sg163
F18000.0
sg164
F5.0
sg165
F3600.0
sg166
F1275.0
sg167
F0.0
sg168
(dp2236
g170
F2800.0
sg171
I00
sg172
F2800.0
sg173
F0.0
sg174
F-101.11336
sg175
I1
sg176
F2800.0
sg177
F2800.0
ssg178
g1
(g180
g3
Ntp2238
Rp2237
(dp2239
g183
(lp2240
Vgenrou
p2241
aI19
aVORE-G19
p2242
aF20.0
aV1
p2243
aV#9
p2244
aVmva=3600.0000
p2245
aF6.0
aF0.025000000000000001
aF0.059999999999999998
aF0.040000000000000001
aF5.0
aF0.0
aF1.2
aF0.69999999999999996
aF0.29999999999999999
aF0.23000000000000001
aF0.22
aF0.17000000000000001
aF0.050000000000000003
aF0.29999999999999999
aF0.0
aF0.0
aF0.0
aF0.0
asg190
g2241
sg191
I19
sg192
g2242
sg193
F20.0
sg194
g2243
sg195
g2244
sg196
F3600.0
sg197
F6.0
sg198
F0.025000000000000001
sg199
F0.059999999999999998
sg200
F0.040000000000000001
sg201
F5.0
sg202
F0.0
sg203
F1.2
sg204
F0.69999999999999996
sg205
F0.29999999999999999
sg206
F0.23000000000000001
sg207
F0.22
sg208
F0.17000000000000001
sg209
F0.050000000000000003
sg210
F0.29999999999999999
sg211
F0.0
sg212
F0.0
sg213
F0.0
sg214
F0.0
sbsg215
I00
sg216
(dp2246
sbasg107
g2224
sg218
g2227
ssV44
p2247
(dp2248
g70
(lp2249
g1
(g73
g3
Ntp2251
Rp2250
(dp2252
g76
g0
sg77
g1
(g18
g3
Ntp2254
Rp2253
(dp2255
g21
g0
sg22
I3
sg23
g1544
sg25
I44
sg26
I43
sg27
I1
sg28
I0
sg29
I0
sg30
I1
sg31
(lp2256
sg33
(lp2257
sg35
(lp2258
sg55
g2249
sg57
(lp2259
sg59
(dp2260
sg61
(dp2261
g63
F1.0107550621032715
sg64
F-0.48409649729728699
ssg65
F500.0
sg66
F1.0
sbsg88
I3
sg89
I1
sg90
V1
p2262
sg92
F38.599997999999999
sg93
F0.0
sg94
VSFO-44
p2263
sg96
I44
sg97
F500.0
sg98
g99
sg100
I-1
sg101
F0.0
sg102
(dp2264
g389
I1
ssg105
(dp2265
sbasg107
g2253
ssV34
p2266
(dp2267
g130
(lp2268
g1
(g133
g3
Ntp2270
Rp2269
(dp2271
g136
g0
sg137
g1
(g18
g3
Ntp2273
Rp2272
(dp2274
g21
g0
sg22
I1
sg23
g1511
sg25
I34
sg26
I33
sg27
I2
sg28
I0
sg29
I1
sg30
I0
sg31
(lp2275
g2269
asg33
(lp2276
sg35
(lp2277
sg55
(lp2278
sg57
(lp2279
sg59
(dp2280
sg61
(dp2281
g63
F1.0281952619552612
sg64
F-0.13045939803123474
ssg65
F20.0
sg66
F1.0249999999999999
sbsg149
V1
p2282
sg151
g99
sg152
I1
sg153
I1
sg154
VORE-G15
p2283
sg156
I34
sg157
I33
sg158
I00
sg159
I00
sg160
Nsg161
Nsg162
F650.0
sg163
F4225.0
sg164
F6.5
sg165
F0.0
sg166
F233.80000000000001
sg167
F0.0
sg168
(dp2284
g170
F467.5
sg171
I00
sg172
F467.5
sg173
F0.0
sg174
F-93.5
sg175
I1
sg176
F467.5
sg177
F467.5
ssg178
g1
(g180
g3
Ntp2286
Rp2285
(dp2287
g183
(lp2288
Vgenrou
p2289
aI34
aVORE-G15
p2290
aF20.0
aV1
p2291
aV#9
p2292
aVmva=650.0000
p2293
aF7.5
aF0.025000000000000001
aF0.5
aF0.059999999999999998
aF6.5
aF0.0
aF2.0
aF1.8999999999999999
aF0.20000000000000001
aF0.69999999999999996
aF0.17999999999999999
aF0.17000000000000001
aF0.050000000000000003
aF0.29999999999999999
aF0.0
aF0.0
aF0.0
aF0.0
asg190
g2289
sg191
I34
sg192
g2290
sg193
F20.0
sg194
g2291
sg195
g2292
sg196
F650.0
sg197
F7.5
sg198
F0.025000000000000001
sg199
F0.5
sg200
F0.059999999999999998
sg201
F6.5
sg202
F0.0
sg203
F2.0
sg204
F1.8999999999999999
sg205
F0.20000000000000001
sg206
F0.69999999999999996
sg207
F0.17999999999999999
sg208
F0.17000000000000001
sg209
F0.050000000000000003
sg210
F0.29999999999999999
sg211
F0.0
sg212
F0.0
sg213
F0.0
sg214
F0.0
sbsg215
I00
sg216
(dp2294
sbasg107
g2272
sg218
g2275
ssV24
p2295
(dp2296
g70
(lp2297
g1
(g73
g3
Ntp2299
Rp2298
(dp2300
g76
g0
sg77
g1
(g18
g3
Ntp2302
Rp2301
(dp2303
g21
g0
sg22
I1
sg23
g1545
sg25
I24
sg26
I23
sg27
I1
sg28
I1
sg29
I0
sg30
I1
sg31
(lp2304
sg33
(lp2305
sg35
(lp2306
g1
(g38
g3
Ntp2308
Rp2307
(dp2309
g41
g0
sg42
g2301
sg43
I24
sg44
V1
p2310
sg46
I1
sg47
I1
sg48
(dp2311
g50
F2850.0
sg51
I1
sg52
F0.0
ssg53
(dp2312
sbasg55
g2297
sg57
(lp2313
sg59
(dp2314
sg61
(dp2315
g63
F1.0336846113204956
sg64
F-0.0089569259434938431
ssg65
F500.0
sg66
F1.0
sbsg88
I1
sg89
I1
sg90
V1
p2316
sg92
F8.125
sg93
F0.0
sg94
VJDAY-24
p2317
sg96
I24
sg97
F500.0
sg98
g99
sg100
I-1
sg101
F0.0
sg102
(dp2318
g104
I1
ssg105
(dp2319
sbasg107
g2301
sg410
g2306
ssV14
p2320
(dp2321
g130
(lp2322
g1
(g133
g3
Ntp2324
Rp2323
(dp2325
g136
g0
sg137
g1
(g18
g3
Ntp2327
Rp2326
(dp2328
g21
g0
sg22
I1
sg23
g1520
sg25
I14
sg26
I13
sg27
I2
sg28
I0
sg29
I1
sg30
I0
sg31
(lp2329
g2323
asg33
(lp2330
sg35
(lp2331
sg55
(lp2332
sg57
(lp2333
sg59
(dp2334
sg61
(dp2335
g63
F1.0249999761581421
sg64
F-0.062952063977718353
ssg65
F20.0
sg66
F1.0249999999999999
sbsg149
V1
p2336
sg151
g99
sg152
I1
sg153
I1
sg154
VORE-G14
p2337
sg156
I14
sg157
I13
sg158
I00
sg159
I00
sg160
Nsg161
Nsg162
F1200.0
sg163
F7800.0
sg164
F6.5
sg165
F0.0
sg166
F425.0
sg167
F0.0
sg168
(dp2338
g170
F850.0
sg171
I00
sg172
F850.0
sg173
F0.0
sg174
F73.530395999999996
sg175
I1
sg176
F850.0
sg177
F850.0
ssg178
g1
(g180
g3
Ntp2340
Rp2339
(dp2341
g183
(lp2342
Vgenrou
p2343
aI14
aVORE-G14
p2344
aF20.0
aV1
p2345
aV#9
p2346
aVmva=1200.0000
p2347
aF7.5
aF0.025000000000000001
aF0.5
aF0.059999999999999998
aF6.5
aF0.0
aF2.0
aF1.8999999999999999
aF0.20000000000000001
aF0.69999999999999996
aF0.17999999999999999
aF0.17000000000000001
aF0.050000000000000003
aF0.29999999999999999
aF0.0
aF0.0
aF0.0
aF0.0
asg190
g2343
sg191
I14
sg192
g2344
sg193
F20.0
sg194
g2345
sg195
g2346
sg196
F1200.0
sg197
F7.5
sg198
F0.025000000000000001
sg199
F0.5
sg200
F0.059999999999999998
sg201
F6.5
sg202
F0.0
sg203
F2.0
sg204
F1.8999999999999999
sg205
F0.20000000000000001
sg206
F0.69999999999999996
sg207
F0.17999999999999999
sg208
F0.17000000000000001
sg209
F0.050000000000000003
sg210
F0.29999999999999999
sg211
F0.0
sg212
F0.0
sg213
F0.0
sg214
F0.0
sbsg215
I00
sg216
(dp2348
sbasg107
g2326
sg218
g2329
ssV39
p2349
(dp2350
g130
(lp2351
g1
(g133
g3
Ntp2353
Rp2352
(dp2354
g136
g0
sg137
g1
(g18
g3
Ntp2356
Rp2355
(dp2357
g21
g0
sg22
I3
sg23
g1499
sg25
I39
sg26
I38
sg27
I2
sg28
I0
sg29
I1
sg30
I0
sg31
(lp2358
g2352
asg33
(lp2359
sg35
(lp2360
sg55
(lp2361
sg57
(lp2362
sg59
(dp2363
sg61
(dp2364
g63
F1.0249999761581421
sg64
F-0.39130142331123352
ssg65
F20.0
sg66
F1.0249999999999999
sbsg149
V1
p2365
sg151
g99
sg152
I3
sg153
I1
sg154
VCA-39
p2366
sg156
I39
sg157
I38
sg158
I00
sg159
I00
sg160
Nsg161
Nsg162
F2500.0
sg163
F16250.0
sg164
F6.5
sg165
F0.0
sg166
F1000.0
sg167
F0.0
sg168
(dp2367
g170
F2000.0
sg171
I00
sg172
F2000.0
sg173
F0.0
sg174
F397.05002000000002
sg175
I1
sg176
F2000.0
sg177
F2000.0
ssg178
g1
(g180
g3
Ntp2369
Rp2368
(dp2370
g183
(lp2371
Vgenrou
p2372
aI39
aVCA-39
p2373
aF20.0
aV1
p2374
aV#9
p2375
aVmva=2500.0000
p2376
aF7.5
aF0.025000000000000001
aF0.5
aF0.059999999999999998
aF6.5
aF0.0
aF2.0
aF1.8999999999999999
aF0.20000000000000001
aF0.69999999999999996
aF0.17999999999999999
aF0.17000000000000001
aF0.050000000000000003
aF0.29999999999999999
aF0.0
aF0.0
aF0.0
aF0.0
asg190
g2372
sg191
I39
sg192
g2373
sg193
F20.0
sg194
g2374
sg195
g2375
sg196
F2500.0
sg197
F7.5
sg198
F0.025000000000000001
sg199
F0.5
sg200
F0.059999999999999998
sg201
F6.5
sg202
F0.0
sg203
F2.0
sg204
F1.8999999999999999
sg205
F0.20000000000000001
sg206
F0.69999999999999996
sg207
F0.17999999999999999
sg208
F0.17000000000000001
sg209
F0.050000000000000003
sg210
F0.29999999999999999
sg211
F0.0
sg212
F0.0
sg213
F0.0
sg214
F0.0
sbsg215
I00
sg216
(dp2377
sbasg107
g2355
sg218
g2358
ssV54
p2378
(dp2379
g70
(lp2380
g1
(g73
g3
Ntp2382
Rp2381
(dp2383
g76
g0
sg77
g1
(g18
g3
Ntp2385
Rp2384
(dp2386
g21
g0
sg22
I3
sg23
g1533
sg25
I54
sg26
I53
sg27
I1
sg28
I0
sg29
I0
sg30
I1
sg31
(lp2387
sg33
(lp2388
sg35
(lp2389
sg55
g2380
sg57
(lp2390
sg59
(dp2391
sg61
(dp2392
g63
F1.0203280448913574
sg64
F-0.83753323554992676
ssg65
F500.0
sg66
F1.0
sbsg88
I3
sg89
I1
sg90
V1
p2393
sg92
F18.712499999999999
sg93
F0.0
sg94
VSDG-54
p2394
sg96
I54
sg97
F500.0
sg98
g99
sg100
I-1
sg101
F0.0
sg102
(dp2395
g389
I1
ssg105
(dp2396
sbasg107
g2384
ssV64
p2397
(dp2398
g107
g1
(g18
g3
Ntp2400
Rp2399
(dp2401
g21
g0
sg22
I3
sg23
g1540
sg25
I64
sg26
I63
sg27
I1
sg28
I1
sg29
I0
sg30
I0
sg31
(lp2402
sg33
(lp2403
sg35
(lp2404
g1
(g38
g3
Ntp2406
Rp2405
(dp2407
g41
g0
sg42
g2399
sg43
I64
sg44
V1
p2408
sg46
I3
sg47
I1
sg48
(dp2409
g50
F12060.0
sg51
I1
sg52
F3015.0
ssg53
(dp2410
sbasg55
(lp2411
sg57
(lp2412
sg59
(dp2413
sg61
(dp2414
g63
F0.99134254455566406
sg64
F-0.54187530279159546
ssg65
F110.0
sg66
F1.0
sbsg410
g2404
ssV99
p2415
(dp2416
g16
g1
(g18
g3
Ntp2418
Rp2417
(dp2419
g21
g0
sg22
I3
sg23
g1502
sg25
I99
sg26
I98
sg27
I1
sg28
I0
sg29
I0
sg30
I0
sg31
(lp2420
sg33
(lp2421
sg35
(lp2422
sg55
(lp2423
sg57
(lp2424
sg59
(dp2425
sg61
(dp2426
g63
F1.0213918685913086
sg64
F-0.33997207880020142
ssg65
F500.0
sg66
F1.0
sbssV89
p2427
(dp2428
g70
(lp2429
g1
(g73
g3
Ntp2431
Rp2430
(dp2432
g76
g0
sg77
g1
(g18
g3
Ntp2434
Rp2433
(dp2435
g21
g0
sg22
I1
sg23
g1513
sg25
I89
sg26
I88
sg27
I1
sg28
I0
sg29
I0
sg30
I1
sg31
(lp2436
sg33
(lp2437
sg35
(lp2438
sg55
g2429
sg57
(lp2439
sg59
(dp2440
sg61
(dp2441
g63
F1.0551992654800415
sg64
F-0.22548919916152954
ssg65
F500.0
sg66
F1.0
sbsg88
I1
sg89
I1
sg90
V1
p2442
sg92
F5.0
sg93
F0.0
sg94
VCOI-89
p2443
sg96
I89
sg97
F500.0
sg98
g99
sg100
I-1
sg101
F0.0
sg102
(dp2444
g104
I1
ssg105
(dp2445
sbasg107
g2433
ssV110
p2446
(dp2447
g371
(lp2448
g1
(g73
g3
Ntp2450
Rp2449
(dp2451
g76
g0
sg77
g1
(g18
g3
Ntp2453
Rp2452
(dp2454
g21
g0
sg22
I3
sg23
g1531
sg25
I110
sg26
I109
sg27
I1
sg28
I0
sg29
I0
sg30
I1
sg31
(lp2455
sg33
(lp2456
sg35
(lp2457
sg55
g2448
sg57
(lp2458
sg59
(dp2459
sg61
(dp2460
g63
F1.0727125406265259
sg64
F-0.2357792854309082
ssg65
F345.0
sg66
F1.0
sbsg88
I3
sg89
I1
sg90
V1
p2461
sg92
F2.0
sg93
F0.0
sg94
VNEV-110
p2462
sg96
I110
sg97
F345.0
sg98
g99
sg100
I-1
sg101
F0.0
sg102
(dp2463
g389
I1
ssg105
(dp2464
sbasg16
g2452
ssV94
p2465
(dp2466
g107
g1
(g18
g3
Ntp2468
Rp2467
(dp2469
g21
g0
sg22
I2
sg23
g1523
sg25
I94
sg26
I93
sg27
I1
sg28
I0
sg29
I0
sg30
I0
sg31
(lp2470
sg33
(lp2471
sg35
(lp2472
sg55
(lp2473
sg57
(lp2474
sg59
(dp2475
sg61
(dp2476
g63
F1.0103508234024048
sg64
F-0.45724600553512573
ssg65
F345.0
sg66
F1.0
sbssV84
p2477
(dp2478
g70
(lp2479
g1
(g73
g3
Ntp2481
Rp2480
(dp2482
g76
g0
sg77
g1
(g18
g3
Ntp2484
Rp2483
(dp2485
g21
g0
sg22
I1
sg23
g1543
sg25
I84
sg26
I83
sg27
I1
sg28
I0
sg29
I0
sg30
I1
sg31
(lp2486
sg33
(lp2487
sg35
(lp2488
sg55
g2479
sg57
(lp2489
sg59
(dp2490
sg61
(dp2491
g63
F1.068874716758728
sg64
F0.32965922355651855
ssg65
F500.0
sg66
F1.0
sbsg88
I1
sg89
I1
sg90
V1
p2492
sg92
F7.0
sg93
F0.0
sg94
VMNT-84
p2493
sg96
I84
sg97
F500.0
sg98
g99
sg100
I-1
sg101
F0.0
sg102
(dp2494
g104
I1
ssg105
(dp2495
sbasg107
g2483
ssV115
p2496
(dp2497
g16
g1
(g18
g3
Ntp2499
Rp2498
(dp2500
g21
g0
sg22
I3
sg23
g1510
sg25
I115
sg26
I114
sg27
I1
sg28
I0
sg29
I0
sg30
I0
sg31
(lp2501
sg33
(lp2502
sg35
(lp2503
sg55
(lp2504
sg57
(lp2505
sg59
(dp2506
sg61
(dp2507
g63
F1.0213017463684082
sg64
F-0.2091401219367981
ssg65
F500.0
sg66
F1.0
sbssV71
p2508
(dp2509
g130
(lp2510
g1
(g133
g3
Ntp2512
Rp2511
(dp2513
g136
g0
sg137
g1
(g18
g3
Ntp2515
Rp2514
(dp2516
g21
g0
sg22
I2
sg23
VCOLO-GEN
p2517
sg25
I71
sg26
I70
sg27
I2
sg28
I0
sg29
I1
sg30
I0
sg31
(lp2518
g2511
asg33
(lp2519
sg35
(lp2520
sg55
(lp2521
sg57
(lp2522
sg59
(dp2523
sg61
(dp2524
g63
F1.0249999761581421
sg64
F-0.18467280268669128
ssg65
F20.0
sg66
F1.0249999999999999
sbsg149
V1
p2525
sg151
g99
sg152
I2
sg153
I1
sg154
VCOLO-GEN
p2526
sg156
I71
sg157
I70
sg158
I00
sg159
I00
sg160
Nsg161
Nsg162
F9700.0
sg163
F63050.0
sg164
F6.5
sg165
F9700.0
sg166
F5625.0
sg167
F0.0
sg168
(dp2527
g170
F8550.0
sg171
I00
sg172
F8550.0
sg173
F0.0
sg174
F1521.8293000000001
sg175
I1
sg176
F8550.0
sg177
F8550.0
ssg178
g1
(g180
g3
Ntp2529
Rp2528
(dp2530
g183
(lp2531
Vgenrou
p2532
aI71
aVCOLO-GEN
p2533
aF20.0
aV1
p2534
aV#9
p2535
aVmva=9700.0000
p2536
aF7.5
aF0.025000000000000001
aF0.5
aF0.059999999999999998
aF6.5
aF0.0
aF2.0
aF1.8999999999999999
aF0.20000000000000001
aF0.69999999999999996
aF0.17999999999999999
aF0.17000000000000001
aF0.050000000000000003
aF0.29999999999999999
aF0.0
aF0.0
aF0.0
aF0.0
asg190
g2532
sg191
I71
sg192
g2533
sg193
F20.0
sg194
g2534
sg195
g2535
sg196
F9700.0
sg197
F7.5
sg198
F0.025000000000000001
sg199
F0.5
sg200
F0.059999999999999998
sg201
F6.5
sg202
F0.0
sg203
F2.0
sg204
F1.8999999999999999
sg205
F0.20000000000000001
sg206
F0.69999999999999996
sg207
F0.17999999999999999
sg208
F0.17000000000000001
sg209
F0.050000000000000003
sg210
F0.29999999999999999
sg211
F0.0
sg212
F0.0
sg213
F0.0
sg214
F0.0
sbsg215
I00
sg216
(dp2537
sbasg107
g2514
sg218
g2518
ssV107
p2538
(dp2539
g130
(lp2540
g1
(g133
g3
Ntp2542
Rp2541
(dp2543
g136
g0
sg137
g1
(g18
g3
Ntp2545
Rp2544
(dp2546
g21
g0
sg22
I2
sg23
g1534
sg25
I107
sg26
I106
sg27
I2
sg28
I0
sg29
I1
sg30
I0
sg31
(lp2547
g2541
asg33
(lp2548
sg35
(lp2549
sg55
(lp2550
sg57
(lp2551
sg59
(dp2552
sg61
(dp2553
g63
F1.0249999761581421
sg64
F-0.20360267162322998
ssg65
F20.0
sg66
F1.0249999999999999
sbsg149
V1
p2554
sg151
g99
sg152
I2
sg153
I1
sg154
VNEV-107
p2555
sg156
I107
sg157
I106
sg158
I00
sg159
I00
sg160
Nsg161
Nsg162
F1200.0
sg163
F7800.0
sg164
F6.5
sg165
F1200.0
sg166
F500.0
sg167
F0.0
sg168
(dp2556
g170
F1000.0
sg171
I00
sg172
F1000.0
sg173
F0.0
sg174
F25.768021000000001
sg175
I1
sg176
F1000.0
sg177
F1000.0
ssg178
g1
(g180
g3
Ntp2558
Rp2557
(dp2559
g183
(lp2560
Vgenrou
p2561
aI107
aVNEV-107
p2562
aF20.0
aV1
p2563
aV#9
p2564
aVmva=1200.0000
p2565
aF7.5
aF0.025000000000000001
aF0.5
aF0.059999999999999998
aF6.5
aF0.0
aF2.0
aF1.8999999999999999
aF0.20000000000000001
aF0.69999999999999996
aF0.17999999999999999
aF0.17000000000000001
aF0.050000000000000003
aF0.29999999999999999
aF0.0
aF0.0
aF0.0
aF0.0
asg190
g2561
sg191
I107
sg192
g2562
sg193
F20.0
sg194
g2563
sg195
g2564
sg196
F1200.0
sg197
F7.5
sg198
F0.025000000000000001
sg199
F0.5
sg200
F0.059999999999999998
sg201
F6.5
sg202
F0.0
sg203
F2.0
sg204
F1.8999999999999999
sg205
F0.20000000000000001
sg206
F0.69999999999999996
sg207
F0.17999999999999999
sg208
F0.17000000000000001
sg209
F0.050000000000000003
sg210
F0.29999999999999999
sg211
F0.0
sg212
F0.0
sg213
F0.0
sg214
F0.0
sbsg215
I00
sg216
(dp2566
sbasg107
g2544
sg218
g2547
ssV51
p2567
(dp2568
g130
(lp2569
g1
(g133
g3
Ntp2571
Rp2570
(dp2572
g136
g0
sg137
g1
(g18
g3
Ntp2574
Rp2573
(dp2575
g21
g0
sg22
I3
sg23
g1495
sg25
I51
sg26
I50
sg27
I2
sg28
I0
sg29
I1
sg30
I0
sg31
(lp2576
g2570
asg33
(lp2577
sg35
(lp2578
sg55
(lp2579
sg57
(lp2580
sg59
(dp2581
sg61
(dp2582
g63
F1.0249999761581421
sg64
F-0.57595300674438477
ssg65
F20.0
sg66
F1.0249999999999999
sbsg149
V1
p2583
sg151
g99
sg152
I3
sg153
I1
sg154
VSC-G2
p2584
sg156
I51
sg157
I50
sg158
I00
sg159
I00
sg160
Nsg161
Nsg162
F2500.0
sg163
F16250.0
sg164
F6.5
sg165
F0.0
sg166
F935.29998999999998
sg167
F0.0
sg168
(dp2585
g170
F1044.0
sg171
I00
sg172
F1044.0
sg173
F0.0
sg174
F61.873359999999998
sg175
I1
sg176
F1044.0
sg177
F1044.0
ssg178
g1
(g180
g3
Ntp2587
Rp2586
(dp2588
g183
(lp2589
Vgenrou
p2590
aI51
aVSC-G2
p2591
aF20.0
aV1
p2592
aV#9
p2593
aVmva=2500.0000
p2594
aF7.5
aF0.025000000000000001
aF0.5
aF0.059999999999999998
aF6.5
aF0.0
aF2.0
aF1.8999999999999999
aF0.20000000000000001
aF0.69999999999999996
aF0.17999999999999999
aF0.17000000000000001
aF0.050000000000000003
aF0.29999999999999999
aF0.0
aF0.0
aF0.0
aF0.0
asg190
g2590
sg191
I51
sg192
g2591
sg193
F20.0
sg194
g2592
sg195
g2593
sg196
F2500.0
sg197
F7.5
sg198
F0.025000000000000001
sg199
F0.5
sg200
F0.059999999999999998
sg201
F6.5
sg202
F0.0
sg203
F2.0
sg204
F1.8999999999999999
sg205
F0.20000000000000001
sg206
F0.69999999999999996
sg207
F0.17999999999999999
sg208
F0.17000000000000001
sg209
F0.050000000000000003
sg210
F0.29999999999999999
sg211
F0.0
sg212
F0.0
sg213
F0.0
sg214
F0.0
sbsg215
I00
sg216
(dp2595
sbasg107
g2573
sg218
g2576
ssV41
p2596
(dp2597
g130
(lp2598
g1
(g133
g3
Ntp2600
Rp2599
(dp2601
g136
g0
sg137
g1
(g18
g3
Ntp2603
Rp2602
(dp2604
g21
g0
sg22
I3
sg23
g1497
sg25
I41
sg26
I40
sg27
I2
sg28
I0
sg29
I1
sg30
I0
sg31
(lp2605
g2599
asg33
(lp2606
sg35
(lp2607
sg55
(lp2608
sg57
(lp2609
sg59
(dp2610
sg61
(dp2611
g63
F1.0249999761581421
sg64
F-0.42837396264076233
ssg65
F20.0
sg66
F1.0249999999999999
sbsg149
V1
p2612
sg151
g99
sg152
I3
sg153
I1
sg154
VSFO-GEN
p2613
sg156
I41
sg157
I40
sg158
I00
sg159
I00
sg160
Nsg161
Nsg162
F5200.0
sg163
F33800.0
sg164
F6.5
sg165
F5200.0
sg166
F2000.0
sg167
F0.0
sg168
(dp2614
g170
F5000.0
sg171
I00
sg172
F5000.0
sg173
F0.0
sg174
F1404.5967000000001
sg175
I1
sg176
F5000.0
sg177
F5000.0
ssg178
g1
(g180
g3
Ntp2616
Rp2615
(dp2617
g183
(lp2618
Vgenrou
p2619
aI41
aVSFO-GEN
p2620
aF20.0
aV1
p2621
aV#9
p2622
aVmva=5200.0000
p2623
aF7.5
aF0.025000000000000001
aF0.5
aF0.059999999999999998
aF6.5
aF0.0
aF2.0
aF1.8999999999999999
aF0.20000000000000001
aF0.69999999999999996
aF0.17999999999999999
aF0.17000000000000001
aF0.050000000000000003
aF0.29999999999999999
aF0.0
aF0.0
aF0.0
aF0.0
asg190
g2619
sg191
I41
sg192
g2620
sg193
F20.0
sg194
g2621
sg195
g2622
sg196
F5200.0
sg197
F7.5
sg198
F0.025000000000000001
sg199
F0.5
sg200
F0.059999999999999998
sg201
F6.5
sg202
F0.0
sg203
F2.0
sg204
F1.8999999999999999
sg205
F0.20000000000000001
sg206
F0.69999999999999996
sg207
F0.17999999999999999
sg208
F0.17000000000000001
sg209
F0.050000000000000003
sg210
F0.29999999999999999
sg211
F0.0
sg212
F0.0
sg213
F0.0
sg214
F0.0
sbsg215
I00
sg216
(dp2624
sbasg107
g2602
sg218
g2605
ssV31
p2625
(dp2626
g107
g1
(g18
g3
Ntp2628
Rp2627
(dp2629
g21
g0
sg22
I2
sg23
g1538
sg25
I31
sg26
I30
sg27
I1
sg28
I0
sg29
I0
sg30
I0
sg31
(lp2630
sg33
(lp2631
sg35
(lp2632
sg55
(lp2633
sg57
(lp2634
sg59
(dp2635
sg61
(dp2636
g63
F1.0373139381408691
sg64
F0.47428667545318604
ssg65
F500.0
sg66
F1.0
sbssV21
p2637
(dp2638
g107
g1
(g18
g3
Ntp2640
Rp2639
(dp2641
g21
g0
sg22
I1
sg23
g1532
sg25
I21
sg26
I20
sg27
I1
sg28
I1
sg29
I0
sg30
I0
sg31
(lp2642
sg33
(lp2643
sg35
(lp2644
g1
(g38
g3
Ntp2646
Rp2645
(dp2647
g41
g0
sg42
g2639
sg43
I21
sg44
V1
p2648
sg46
I1
sg47
I1
sg48
(dp2649
g50
F900.0
sg51
I1
sg52
F225.0
ssg53
(dp2650
sbasg55
(lp2651
sg57
(lp2652
sg59
(dp2653
sg61
(dp2654
g63
F1.0060629844665527
sg64
F-0.029176369309425354
ssg65
F110.0
sg66
F1.0
sbsg410
g2644
ssV11
p2655
(dp2656
g107
g1
(g18
g3
Ntp2658
Rp2657
(dp2659
g21
g0
sg22
I1
sg23
g1530
sg25
I11
sg26
I10
sg27
I1
sg28
I1
sg29
I0
sg30
I0
sg31
(lp2660
sg33
(lp2661
sg35
(lp2662
g1
(g38
g3
Ntp2664
Rp2663
(dp2665
g41
g0
sg42
g2657
sg43
I11
sg44
V1
p2666
sg46
I1
sg47
I1
sg48
(dp2667
g50
F5400.0
sg51
I1
sg52
F1350.0
ssg53
(dp2668
sbasg55
(lp2669
sg57
(lp2670
sg59
(dp2671
sg61
(dp2672
g63
F1.0029221773147583
sg64
F-0.22304606437683106
ssg65
F110.0
sg66
F1.0
sbsg410
g2662
ssV61
p2673
(dp2674
g70
(lp2675
g1
(g73
g3
Ntp2677
Rp2676
(dp2678
g76
g0
sg77
g1
(g18
g3
Ntp2680
Rp2679
(dp2681
g21
g0
sg22
I3
sg23
g1539
sg25
I61
sg26
I60
sg27
I1
sg28
I0
sg29
I0
sg30
I1
sg31
(lp2682
sg33
(lp2683
sg35
(lp2684
sg55
g2675
sg57
(lp2685
sg59
(dp2686
sg61
(dp2687
g63
F1.0197516679763794
sg64
F-0.3418232798576355
ssg65
F500.0
sg66
F1.0
sbsg88
I3
sg89
I1
sg90
V1
p2688
sg92
F5.0
sg93
F0.0
sg94
VPV-61
p2689
sg96
I61
sg97
F500.0
sg98
g99
sg100
I-1
sg101
F0.0
sg102
(dp2690
g389
I1
ssg105
(dp2691
sbasg107
g2679
ssV91
p2692
(dp2693
g16
g1
(g18
g3
Ntp2695
Rp2694
(dp2696
g21
g0
sg22
I3
sg23
g1503
sg25
I91
sg26
I90
sg27
I1
sg28
I0
sg29
I0
sg30
I0
sg31
(lp2697
sg33
(lp2698
sg35
(lp2699
sg55
(lp2700
sg57
(lp2701
sg59
(dp2702
sg61
(dp2703
g63
F1.0251822471618652
sg64
F-0.37346261739730835
ssg65
F500.0
sg66
F1.0
sbssV81
p2704
(dp2705
g70
(lp2706
g1
(g73
g3
Ntp2708
Rp2707
(dp2709
g76
g0
sg77
g1
(g18
g3
Ntp2711
Rp2710
(dp2712
g21
g0
sg22
I1
sg23
g1500
sg25
I81
sg26
I80
sg27
I1
sg28
I0
sg29
I0
sg30
I1
sg31
(lp2713
sg33
(lp2714
sg35
(lp2715
sg55
g2706
sg57
(lp2716
sg59
(dp2717
sg61
(dp2718
g63
F1.0334931612014771
sg64
F0.079484552145004272
ssg65
F500.0
sg66
F1.0
sbsg88
I1
sg89
I1
sg90
V1
p2719
sg92
F1.0
sg93
F0.0
sg94
VBCH-81
p2720
sg96
I81
sg97
F500.0
sg98
g99
sg100
I-1
sg101
F0.0
sg102
(dp2721
g104
I1
ssg105
(dp2722
sbasg107
g2710
ssV111
p2723
(dp2724
g107
g1
(g18
g3
Ntp2726
Rp2725
(dp2727
g21
g0
sg22
I1
sg23
g1517
sg25
I111
sg26
I110
sg27
I1
sg28
I0
sg29
I0
sg30
I0
sg31
(lp2728
sg33
(lp2729
sg35
(lp2730
sg55
(lp2731
sg57
(lp2732
sg59
(dp2733
sg61
(dp2734
g63
F1.0290995836257935
sg64
F0.039498616009950638
ssg65
F230.0
sg66
F1.0
sbssV118
p2735
(dp2736
g130
(lp2737
g1
(g133
g3
Ntp2739
Rp2738
(dp2740
g136
g0
sg137
g1
(g18
g3
Ntp2742
Rp2741
(dp2743
g21
g0
sg22
I1
sg23
g1518
sg25
I118
sg26
I117
sg27
I2
sg28
I0
sg29
I1
sg30
I0
sg31
(lp2744
g2738
asg33
(lp2745
sg35
(lp2746
sg55
(lp2747
sg57
(lp2748
sg59
(dp2749
sg61
(dp2750
g63
F1.0249999761581421
sg64
F0.7820972204208374
ssg65
F20.0
sg66
F1.0249999999999999
sbsg149
V1
p2751
sg151
g99
sg152
I1
sg153
I1
sg154
VALB-GEN
p2752
sg156
I118
sg157
I117
sg158
I00
sg159
I00
sg160
Nsg161
Nsg162
F13000.0
sg163
F84500.0
sg164
F6.5
sg165
F13000.0
sg166
F4600.0
sg167
F0.0
sg168
(dp2753
g170
F8450.0
sg171
I00
sg172
F8450.0
sg173
F0.0
sg174
F923.23352
sg175
I1
sg176
F8450.0
sg177
F8450.0
ssg178
g1
(g180
g3
Ntp2755
Rp2754
(dp2756
g183
(lp2757
Vgenrou
p2758
aI118
aVALB-GEN
p2759
aF20.0
aV1
p2760
aV#9
p2761
aVmva=13000.0000
p2762
aF7.5
aF0.025000000000000001
aF0.5
aF0.059999999999999998
aF6.5
aF0.0
aF2.0
aF1.8999999999999999
aF0.20000000000000001
aF0.69999999999999996
aF0.17999999999999999
aF0.17000000000000001
aF0.050000000000000003
aF0.29999999999999999
aF0.0
aF0.0
aF0.0
aF0.0
asg190
g2758
sg191
I118
sg192
g2759
sg193
F20.0
sg194
g2760
sg195
g2761
sg196
F13000.0
sg197
F7.5
sg198
F0.025000000000000001
sg199
F0.5
sg200
F0.059999999999999998
sg201
F6.5
sg202
F0.0
sg203
F2.0
sg204
F1.8999999999999999
sg205
F0.20000000000000001
sg206
F0.69999999999999996
sg207
F0.17999999999999999
sg208
F0.17000000000000001
sg209
F0.050000000000000003
sg210
F0.29999999999999999
sg211
F0.0
sg212
F0.0
sg213
F0.0
sg214
F0.0
sbsg215
I00
sg216
(dp2763
sbasg107
g2741
sg218
g2744
ssV103
p2764
(dp2765
g70
(lp2766
g1
(g73
g3
Ntp2768
Rp2767
(dp2769
g76
g0
sg77
g1
(g18
g3
Ntp2771
Rp2770
(dp2772
g21
g0
sg22
I2
sg23
g1526
sg25
I103
sg26
I102
sg27
I1
sg28
I0
sg29
I0
sg30
I1
sg31
(lp2773
sg33
(lp2774
sg35
(lp2775
sg55
g2766
sg57
(lp2776
sg59
(dp2777
sg61
(dp2778
g63
F1.0969791412353516
sg64
F0.36597558856010437
ssg65
F230.0
sg66
F1.0
sbsg88
I2
sg89
I1
sg90
V1
p2779
sg92
F1.0
sg93
F0.0
sg94
VMNT-103
p2780
sg96
I103
sg97
F230.0
sg98
g99
sg100
I-1
sg101
F0.0
sg102
(dp2781
g104
I1
ssg105
(dp2782
sbasg107
g2770
sssVSimTime
p2783
F0.0
sVIVPTime
p2784
F0.0
sVDynamicTime
p2785
F0.0
sVPFTime
p2786
F0.066497802734375
sVIPYmsgMake
p2787
F0.0
sVIPYSendTime
p2788
F0.0
sVIPYdistPaccTime
p2789
F0.0
sVIPYPvalsTime
p2790
F0.0
sVPY3SendTime
p2791
F0.0
sVPY3RecTime
p2792
F0.0
sVFindTime
p2793
F0.00699615478515625
sVIPYFindTime
p2794
F0.0
sVDynamicSolns
p2795
I0
sVPFSolns
p2796
I1
sVPY3msgs
p2797
I0
sVIPYmsgs
p2798
I0
sVsimParams
p2799
(dp2800
VfileName
p2801
VminiWECC3A2
p2802
sVdeleteInit
p2803
I0
sVfileDirectory
p2804
V\u005cdelme\u005cminiWECC3A\u005c
p2805
sVexportDict
p2806
I0
sVslackTol
p2807
I1
sVIPYmsgGroup
p2808
I60
sVHinput
p2809
F0.0
sVPY3msgGroup
p2810
I3
sVDsys
p2811
F0.0
sVexportMat
p2812
I1
sVfreqEffects
p2813
I01
sVexportFinalMirror
p2814
I1
sVfBase
p2815
F60.0
sVendTime
p2816
I900
sVtimeStep
p2817
I1
sVintegrationMethod
p2818
Vrk45
p2819
ssVlocations
p2820
(dp2821
VltdPath
p2822
V.\u005ctestCases\u005cminiWECC3Area\u005cminiWECC3A2.ltd.py
p2823
sVsavPath
p2824
VC:\u005cLTD\u005cpslf_systems\u005cMiniPSLF_PST\u005cminiWECC3Area.sav
p2825
sVpslfPath
p2826
VC:\u005cProgram Files (x86)\u005cGE PSLF
p2827
sVmiddlewareFilePath
p2828
VC:\u005cProgram Files (x86)\u005cGE PSLF\u005cPslfMiddleware
p2829
sVdydPath
p2830
(lp2831
VC:\u005cLTD\u005cpslf_systems\u005cMiniPSLF_PST\u005cminiWECC_LTD.dyd
p2832
assVdebug
p2833
I0
sVdebugTimer
p2834
I0
sVAMQPdebug
p2835
I0
sVtimeStep
p2836
I1
sVendTime
p2837
I900
sVslackTol
p2838
I1
sVHinput
p2839
F0.0
sVDsys
p2840
F0.0
sVIPYmsgGroup
p2841
I60
sVPY3msgGroup
p2842
I3
sVfBase
p2843
F60.0
sVdataPoints
p2844
I901
sVcv
p2845
(dp2846
Vt
p2847
F0.0
sVdp
p2848
I0
sVdeltaF
p2849
F0.0
sVf
p2850
F1.0
sVfdot
p2851
F0.0
ssVss_H
p2852
F976820.0
sVss_Hgov
p2853
F0.0
sVss_Pe
p2854
F0.0
sVss_Pm
p2855
F0.0
sVss_Pacc
p2856
F0.0
sVss_Qgen
p2857
F0.0
sVss_Qload
p2858
F0.0
sVss_Pload
p2859
F0.0
sVss_Pert_Pdelta
p2860
F0.0
sVss_Pert_Qdelta
p2861
F0.0
sVArea
p2862
(lp2863
g1
(cpsltdsim.systemAgents.AreaAgent
AreaAgent
p2865
g3
Ntp2866
Rp2864
(dp2867
Vmirror
p2868
g0
sVArea
p2869
I1
sVNgen
p2870
I15
sVNload
p2871
I10
sVNbranch
p2872
I104
sVNshunt
p2873
I21
sVBranch
p2874
(lp2875
g1
(cpsltdsim.systemAgents.BranchAgent
BranchAgent
p2877
g3
Ntp2878
Rp2876
(dp2879
Vmirror
p2880
g0
sVArea
p2881
g2864
sVCk
p2882
VL1
p2883
sVId
p2884
g2883
sVScanBus
p2885
I1
sVSec
p2886
I1
sVFbusIndex
p2887
I1
sVTbusIndex
p2888
I79
sVBus
p2889
g275
sVTBus
p2890
g1193
sVcv
p2891
(dp2892
VAmps
p2893
F2244.5458984375
sg389
I1
ssVX
p2894
F0.012916
sVR
p2895
F0.0016789999999999999
sVB
p2896
F0.0
sVLength
p2897
F0.0
sbag1
(g2877
g3
Ntp2899
Rp2898
(dp2900
g2880
g0
sg2881
g2864
sg2882
VL1
p2901
sg2884
g2901
sg2885
I3
sg2886
I1
sg2887
I3
sg2888
I78
sg2889
g225
sg2890
g2079
sg2891
(dp2902
g2893
F1932.8375244140625
sg389
I1
ssg2894
F0.0042319999999999997
sg2895
F0.00030899999999999998
sg2896
F0.0
sg2897
F0.0
sbag1
(g2877
g3
Ntp2904
Rp2903
(dp2905
g2880
g0
sg2881
g2864
sg2882
VL1
p2906
sg2884
g2906
sg2885
I5
sg2886
I1
sg2887
I5
sg2888
I27
sg2889
g114
sg2890
g839
sg2891
(dp2907
g2893
F1279.498291015625
sg389
I1
ssg2894
F0.037499999999999999
sg2895
F0.0031250000000000002
sg2896
F0.0
sg2897
F0.0
sbag1
(g2877
g3
Ntp2909
Rp2908
(dp2910
g2880
g0
sg2881
g2864
sg2882
VL1
p2911
sg2884
g2911
sg2885
I5
sg2886
I1
sg2887
I5
sg2888
I78
sg2889
g114
sg2890
g2079
sg2891
(dp2912
g2893
F1125.864501953125
sg389
I1
ssg2894
F0.036600000000000001
sg2895
F0.00265
sg2896
F0.0
sg2897
F0.0
sbag1
(g2877
g3
Ntp2914
Rp2913
(dp2915
g2880
g0
sg2881
g2864
sg2882
VL2
p2916
sg2884
g2916
sg2885
I5
sg2886
I1
sg2887
I5
sg2888
I78
sg2889
g114
sg2890
g2079
sg2891
(dp2917
g2893
F1040.697509765625
sg389
I1
ssg2894
F0.039600000000000003
sg2895
F0.0028
sg2896
F0.0
sg2897
F0.0
sbag1
(g2877
g3
Ntp2919
Rp2918
(dp2920
g2880
g0
sg2881
g2864
sg2882
VL1
p2921
sg2884
g2921
sg2885
I5
sg2886
I1
sg2887
I5
sg2888
I105
sg2889
g114
sg2890
g2063
sg2891
(dp2922
g2893
F283.3546142578125
sg389
I1
ssg2894
F0.064100000000000004
sg2895
F0.0045999999999999999
sg2896
F0.0
sg2897
F0.0
sbag1
(g2877
g3
Ntp2924
Rp2923
(dp2925
g2880
g0
sg2881
g2864
sg2882
VL1
p2926
sg2884
g2926
sg2885
I6
sg2886
I1
sg2887
I6
sg2888
I9
sg2889
g78
sg2890
g1153
sg2891
(dp2927
g2893
F1060.406494140625
sg389
I1
ssg2894
F0.012954
sg2895
F0.00074600000000000003
sg2896
F0.0
sg2897
F0.0
sbag1
(g2877
g3
Ntp2929
Rp2928
(dp2930
g2880
g0
sg2881
g2864
sg2882
VL1
p2931
sg2884
g2931
sg2885
I9
sg2886
I1
sg2887
I9
sg2888
I12
sg2889
g1153
sg2890
g822
sg2891
(dp2932
g2893
F945.82708740234375
sg389
I1
ssg2894
F0.017999999999999999
sg2895
F0.00075000000000000002
sg2896
F0.0
sg2897
F0.0
sbag1
(g2877
g3
Ntp2934
Rp2933
(dp2935
g2880
g0
sg2881
g2864
sg2882
VL1
p2936
sg2884
g2936
sg2885
I12
sg2886
I1
sg2887
I12
sg2888
I14
sg2889
g822
sg2890
g1443
sg2891
(dp2937
g2893
F996.904296875
sg389
I1
ssg2894
F0.017999999999999999
sg2895
F0.00075000000000000002
sg2896
F0.0
sg2897
F0.0
sbag1
(g2877
g3
Ntp2939
Rp2938
(dp2940
g2880
g0
sg2881
g2864
sg2882
VL1
p2941
sg2884
g2941
sg2885
I14
sg2886
I1
sg2887
I14
sg2888
I34
sg2889
g1443
sg2890
g1393
sg2891
(dp2942
g2893
F623.57867431640625
sg389
I1
ssg2894
F0.013599999999999999
sg2895
F0.0014
sg2896
F0.0
sg2897
F0.0
sbag1
(g2877
g3
Ntp2944
Rp2943
(dp2945
g2880
g0
sg2881
g2864
sg2882
VL1
p2946
sg2884
g2946
sg2885
I17
sg2886
I1
sg2887
I17
sg2888
I9
sg2889
g740
sg2890
g1153
sg2891
(dp2947
g2893
F610.770751953125
sg389
I1
ssg2894
F0.025100000000000001
sg2895
F0.0012999999999999999
sg2896
F0.0
sg2897
F0.0
sbag1
(g2877
g3
Ntp2949
Rp2948
(dp2950
g2880
g0
sg2881
g2864
sg2882
VL1
p2951
sg2884
g2951
sg2885
I17
sg2886
I1
sg2887
I17
sg2888
I19
sg2889
g740
sg2890
g1133
sg2891
(dp2952
g2893
F367.9395751953125
sg389
I1
ssg2894
F0.0207
sg2895
F0.0011000000000000001
sg2896
F0.0
sg2897
F0.0
sbag1
(g2877
g3
Ntp2954
Rp2953
(dp2955
g2880
g0
sg2881
g2864
sg2882
VL1
p2956
sg2884
g2956
sg2885
I17
sg2886
I1
sg2887
I17
sg2888
I27
sg2889
g740
sg2890
g839
sg2891
(dp2957
g2893
F986.35040283203125
sg389
I1
ssg2894
F0.01456
sg2895
F0.00064000000000000005
sg2896
F0.0
sg2897
F0.0
sbag1
(g2877
g3
Ntp2959
Rp2958
(dp2960
g2880
g0
sg2881
g2864
sg2882
VL1
p2961
sg2884
g2961
sg2885
I17
sg2886
I1
sg2887
I17
sg2888
I81
sg2889
g740
sg2890
g1787
sg2891
(dp2962
g2893
F1276.204345703125
sg389
I1
ssg2894
F0.0063
sg2895
F0.00040000000000000002
sg2896
F0.0
sg2897
F0.0
sbag1
(g2877
g3
Ntp2964
Rp2963
(dp2965
g2880
g0
sg2881
g2864
sg2882
VL1
p2966
sg2884
g2966
sg2885
I19
sg2886
I1
sg2887
I19
sg2888
I23
sg2889
g1133
sg2890
g2301
sg2891
(dp2967
g2893
F3968.935791015625
sg389
I1
ssg2894
F0.002
sg2895
F0.0
sg2896
F0.0
sg2897
F0.0
sbag1
(g2877
g3
Ntp2969
Rp2968
(dp2970
g2880
g0
sg2881
g2864
sg2882
VL1
p2971
sg2884
g2971
sg2885
I23
sg2886
I1
sg2887
I23
sg2888
I14
sg2889
g2301
sg2890
g1443
sg2891
(dp2972
g2893
F2681.470458984375
sg389
I1
ssg2894
F0.0060000000000000001
sg2895
F0.00025000000000000001
sg2896
F0.0
sg2897
F0.0
sbag1
(g2877
g3
Ntp2974
Rp2973
(dp2975
g2880
g0
sg2881
g2864
sg2882
VL1
p2976
sg2884
g2976
sg2885
I23
sg2886
I1
sg2887
I23
sg2888
I85
sg2889
g2301
sg2890
g576
sg2891
(dp2977
g2893
F818.21771240234375
sg389
I1
ssg2894
F0.021100000000000001
sg2895
F0.0011000000000000001
sg2896
F0.0
sg2897
F0.0
sbag1
(g2877
g3
Ntp2979
Rp2978
(dp2980
g2880
g0
sg2881
g2864
sg2882
VL2
p2981
sg2884
g2981
sg2885
I23
sg2886
I1
sg2887
I23
sg2888
I85
sg2889
g2301
sg2890
g576
sg2891
(dp2982
g2893
F818.21771240234375
sg389
I1
ssg2894
F0.021100000000000001
sg2895
F0.0011000000000000001
sg2896
F0.0
sg2897
F0.0
sbag1
(g2877
g3
Ntp2984
Rp2983
(dp2985
g2880
g0
sg2881
g2864
sg2882
VL3
p2986
sg2884
g2986
sg2885
I23
sg2886
I1
sg2887
I23
sg2888
I85
sg2889
g2301
sg2890
g576
sg2891
(dp2987
g2893
F1540.551025390625
sg389
I1
ssg2894
F0.0112
sg2895
F0.00069999999999999999
sg2896
F0.0
sg2897
F0.0
sbag1
(g2877
g3
Ntp2989
Rp2988
(dp2990
g2880
g0
sg2881
g2864
sg2882
VL1
p2991
sg2884
g2991
sg2885
I30
sg2886
I1
sg2887
I30
sg2888
I83
sg2889
g2627
sg2890
g2483
sg2891
(dp2992
g2893
F1444.7569580078125
sg389
I1
ssg2894
F0.0124
sg2895
F0.00069999999999999999
sg2896
F0.0
sg2897
F0.0
sbag1
(g2877
g3
Ntp2994
Rp2993
(dp2995
g2880
g0
sg2881
g2864
sg2882
VL1
p2996
sg2884
g2996
sg2885
I32
sg2886
I1
sg2887
I32
sg2888
I82
sg2889
g776
sg2890
g975
sg2891
(dp2997
g2893
F806.985107421875
sg389
I1
ssg2894
F0.043799999999999999
sg2895
F0.0035000000000000001
sg2896
F0.0
sg2897
F0.0
sbag1
(g2877
g3
Ntp2999
Rp2998
(dp3000
g2880
g0
sg2881
g2864
sg2882
VL1
p3001
sg2884
g3001
sg2885
I32
sg2886
I1
sg2887
I32
sg2888
I84
sg2889
g776
sg2890
g1571
sg2891
(dp3002
g2893
F806.98516845703125
sg389
I1
ssg2894
F0.035040000000000002
sg2895
F0.0028
sg2896
F0.0
sg2897
F0.0
sbag1
(g2877
g3
Ntp3004
Rp3003
(dp3005
g2880
g0
sg2881
g2864
sg2882
VL1
p3006
sg2884
g3006
sg2885
I37
sg2886
I1
sg2887
I37
sg2888
I39
sg2889
g859
sg2890
g1083
sg2891
(dp3007
g2893
F1356.8489990234375
sg389
I1
ssg2894
F0.0058999999999999999
sg2895
F0.0011000000000000001
sg2896
F0.0
sg2897
F0.0
sbag1
(g2877
g3
Ntp3009
Rp3008
(dp3010
g2880
g0
sg2881
g2864
sg2882
VL2
p3011
sg2884
g3011
sg2885
I37
sg2886
I1
sg2887
I37
sg2888
I39
sg2889
g859
sg2890
g1083
sg2891
(dp3012
g2893
F1356.8489990234375
sg389
I1
ssg2894
F0.0058999999999999999
sg2895
F0.0011000000000000001
sg2896
F0.0
sg2897
F0.0
sbag1
(g2877
g3
Ntp3014
Rp3013
(dp3015
g2880
g0
sg2881
g2864
sg2882
VL1
p3016
sg2884
g3016
sg2885
I39
sg2886
I1
sg2887
I39
sg2888
I43
sg2889
g1083
sg2890
g2253
sg2891
(dp3017
g2893
F1258.5966796875
sg389
I1
ssg2894
F0.0117
sg2895
F0.0014
sg2896
F0.0
sg2897
F0.0
sbag1
(g2877
g3
Ntp3019
Rp3018
(dp3020
g2880
g0
sg2881
g2864
sg2882
VL2
p3021
sg2884
g3021
sg2885
I39
sg2886
I1
sg2887
I39
sg2888
I43
sg2889
g1083
sg2890
g2253
sg2891
(dp3022
g2893
F1438.51123046875
sg389
I1
ssg2894
F0.010200000000000001
sg2895
F0.0015
sg2896
F0.0
sg2897
F0.0
sbag1
(g2877
g3
Ntp3024
Rp3023
(dp3025
g2880
g0
sg2881
g2864
sg2882
VL1
p3026
sg2884
g3026
sg2885
I41
sg2886
I1
sg2887
I41
sg2888
I43
sg2889
g1640
sg2890
g2253
sg2891
(dp3027
g2893
F5850.7197265625
sg389
I1
ssg2894
F0.00029999999999999997
sg2895
F0.0
sg2896
F0.0
sg2897
F0.0
sbag1
(g2877
g3
Ntp3029
Rp3028
(dp3030
g2880
g0
sg2881
g2864
sg2882
VL1
p3031
sg2884
g3031
sg2885
I43
sg2886
I1
sg2887
I43
sg2888
I113
sg2889
g2253
sg2890
g2017
sg2891
(dp3032
g2893
F562.71502685546875
sg389
I1
ssg2894
F0.015900000000000001
sg2895
F0.00069999999999999999
sg2896
F0.0
sg2897
F0.0
sbag1
(g2877
g3
Ntp3034
Rp3033
(dp3035
g2880
g0
sg2881
g2864
sg2882
VL2
p3036
sg2884
g3036
sg2885
I43
sg2886
I1
sg2887
I43
sg2888
I113
sg2889
g2253
sg2890
g2017
sg2891
(dp3037
g2893
F634.59136962890625
sg389
I1
ssg2894
F0.0141
sg2895
F0.00059999999999999995
sg2896
F0.0
sg2897
F0.0
sbag1
(g2877
g3
Ntp3039
Rp3038
(dp3040
g2880
g0
sg2881
g2864
sg2882
VL3
p3041
sg2884
g3041
sg2885
I43
sg2886
I1
sg2887
I43
sg2888
I113
sg2889
g2253
sg2890
g2017
sg2891
(dp3042
g2893
F291.3734130859375
sg389
I1
ssg2894
F0.030700000000000002
sg2895
F0.0015
sg2896
F0.0
sg2897
F0.0
sbag1
(g2877
g3
Ntp3044
Rp3043
(dp3045
g2880
g0
sg2881
g2864
sg2882
VL1
p3046
sg2884
g3046
sg2885
I45
sg2886
I1
sg2887
I45
sg2888
I48
sg2889
g413
sg2890
g2152
sg2891
(dp3047
g2893
F1117.961669921875
sg389
I1
ssg2894
F0.0082000000000000007
sg2895
F0.0011000000000000001
sg2896
F0.0
sg2897
F0.0
sbag1
(g2877
g3
Ntp3049
Rp3048
(dp3050
g2880
g0
sg2881
g2864
sg2882
VL2
p3051
sg2884
g3051
sg2885
I45
sg2886
I1
sg2887
I45
sg2888
I48
sg2889
g413
sg2890
g2152
sg2891
(dp3052
g2893
F1145.398193359375
sg389
I1
ssg2894
F0.0080000000000000002
sg2895
F0.0011000000000000001
sg2896
F0.0
sg2897
F0.0
sbag1
(g2877
g3
Ntp3054
Rp3053
(dp3055
g2880
g0
sg2881
g2864
sg2882
VL1
p3056
sg2884
g3056
sg2885
I45
sg2886
I1
sg2887
I45
sg2888
I90
sg2889
g413
sg2890
g2694
sg2891
(dp3057
g2893
F1362.2696533203125
sg389
I1
ssg2894
F0.0033500000000000001
sg2895
F0.00055000000000000003
sg2896
F0.0
sg2897
F0.0
sbag1
(g2877
g3
Ntp3059
Rp3058
(dp3060
g2880
g0
sg2881
g2864
sg2882
VL1
p3061
sg2884
g3061
sg2885
I48
sg2886
I1
sg2887
I48
sg2888
I112
sg2889
g2152
sg2890
g1806
sg2891
(dp3062
g2893
F5552.8662109375
sg389
I1
ssg2894
F0.0056499999999999996
sg2895
F0.00020000000000000001
sg2896
F0.0
sg2897
F0.0
sbag1
(g2877
g3
Ntp3064
Rp3063
(dp3065
g2880
g0
sg2881
g2864
sg2882
VL1
p3066
sg2884
g3066
sg2885
I53
sg2886
I1
sg2887
I53
sg2888
I60
sg2889
g2384
sg2890
g2679
sg2891
(dp3067
g2893
F2352.765625
sg389
I1
ssg2894
F0.024473000000000002
sg2895
F0.0020999999999999999
sg2896
F0.0
sg2897
F0.0
sbag1
(g2877
g3
Ntp3069
Rp3068
(dp3070
g2880
g0
sg2881
g2864
sg2882
VL1
p3071
sg2884
g3071
sg2885
I56
sg2886
I1
sg2887
I56
sg2888
I62
sg2889
g1869
sg2890
g909
sg2891
(dp3072
g2893
F49.703849792480469
sg389
I1
ssg2894
F0.095000000000000001
sg2895
F0.0085000000000000006
sg2896
F0.0
sg2897
F0.0
sbag1
(g2877
g3
Ntp3074
Rp3073
(dp3075
g2880
g0
sg2881
g2864
sg2882
VL1
p3076
sg2884
g3076
sg2885
I56
sg2886
I1
sg2887
I56
sg2888
I65
sg2889
g1869
sg2890
g376
sg2891
(dp3077
g2893
F1585.4969482421875
sg389
I1
ssg2894
F0.0143
sg2895
F0.0020999999999999999
sg2896
F0.0
sg2897
F0.0
sbag1
(g2877
g3
Ntp3079
Rp3078
(dp3080
g2880
g0
sg2881
g2864
sg2882
VL1
p3081
sg2884
g3081
sg2885
I56
sg2886
I1
sg2887
I56
sg2888
I92
sg2889
g1869
sg2890
g958
sg2891
(dp3082
g2893
F287.34344482421875
sg389
I1
ssg2894
F0.0082000000000000007
sg2895
F0.00089999999999999998
sg2896
F0.0
sg2897
F0.0
sbag1
(g2877
g3
Ntp3084
Rp3083
(dp3085
g2880
g0
sg2881
g2864
sg2882
VL1
p3086
sg2884
g3086
sg2885
I56
sg2886
I1
sg2887
I56
sg2888
I97
sg2889
g1869
sg2890
g945
sg2891
(dp3087
g2893
F3160.50439453125
sg389
I1
ssg2894
F0.0035890000000000002
sg2895
F0.00051199999999999998
sg2896
F0.0
sg2897
F0.0
sbag1
(g2877
g3
Ntp3089
Rp3088
(dp3090
g2880
g0
sg2881
g2864
sg2882
VL1
p3091
sg2884
g3091
sg2885
I60
sg2886
I1
sg2887
I60
sg2888
I62
sg2889
g2679
sg2890
g909
sg2891
(dp3092
g2893
F1302.9969482421875
sg389
I1
ssg2894
F0.01
sg2895
F0.0
sg2896
F0.0
sg2897
F0.0
sbag1
(g2877
g3
Ntp3094
Rp3093
(dp3095
g2880
g0
sg2881
g2864
sg2882
VL1
p3096
sg2884
g3096
sg2885
I62
sg2886
I1
sg2887
I62
sg2888
I65
sg2889
g909
sg2890
g376
sg2891
(dp3097
g2893
F659.635498046875
sg389
I1
ssg2894
F0.0275
sg2895
F0.0018
sg2896
F0.0
sg2897
F0.0
sbag1
(g2877
g3
Ntp3099
Rp3098
(dp3100
g2880
g0
sg2881
g2864
sg2882
VL2
p3101
sg2884
g3101
sg2885
I62
sg2886
I1
sg2887
I62
sg2888
I65
sg2889
g909
sg2890
g376
sg2891
(dp3102
g2893
F348.5625
sg389
I1
ssg2894
F0.051999999999999998
sg2895
F0.0040000000000000001
sg2896
F0.0
sg2897
F0.0
sbag1
(g2877
g3
Ntp3104
Rp3103
(dp3105
g2880
g0
sg2881
g2864
sg2882
VL1
p3106
sg2884
g3106
sg2885
I62
sg2886
I1
sg2887
I62
sg2888
I96
sg2889
g909
sg2890
g2032
sg2891
(dp3107
g2893
F566.07568359375
sg389
I1
ssg2894
F0.016
sg2895
F0.0013500000000000001
sg2896
F0.0
sg2897
F0.0
sbag1
(g2877
g3
Ntp3109
Rp3108
(dp3110
g2880
g0
sg2881
g2864
sg2882
VL1
p3111
sg2884
g3111
sg2885
I65
sg2886
I1
sg2887
I65
sg2888
I66
sg2889
g376
sg2890
g1850
sg2891
(dp3112
g2893
F1308.5032958984375
sg389
I1
ssg2894
F0.02085
sg2895
F0.00089999999999999998
sg2896
F0.0
sg2897
F0.0
sbag1
(g2877
g3
Ntp3114
Rp3113
(dp3115
g2880
g0
sg2881
g2864
sg2882
VL1
p3116
sg2884
g3116
sg2885
I71
sg2886
I1
sg2887
I71
sg2888
I68
sg2889
g1590
sg2890
g2098
sg2891
(dp3117
g2893
F96.107192993164062
sg389
I1
ssg2894
F0.046875
sg2895
F0.014062
sg2896
F0.0
sg2897
F0.0
sbag1
(g2877
g3
Ntp3119
Rp3118
(dp3120
g2880
g0
sg2881
g2864
sg2882
VL1
p3121
sg2884
g3121
sg2885
I76
sg2886
I1
sg2887
I76
sg2888
I101
sg2889
g1831
sg2890
g1266
sg2891
(dp3122
g2893
F2514.56787109375
sg389
I1
ssg2894
F0.02
sg2895
F0.0050000000000000001
sg2896
F0.0
sg2897
F0.0
sbag1
(g2877
g3
Ntp3124
Rp3123
(dp3125
g2880
g0
sg2881
g2864
sg2882
VL1
p3126
sg2884
g3126
sg2885
I78
sg2886
I1
sg2887
I78
sg2888
I6
sg2889
g2079
sg2890
g78
sg2891
(dp3127
g2893
F2828.669189453125
sg389
I1
ssg2894
F0.0082500000000000004
sg2895
F0.00125
sg2896
F0.0
sg2897
F0.0
sbag1
(g2877
g3
Ntp3129
Rp3128
(dp3130
g2880
g0
sg2881
g2864
sg2882
VL2
p3131
sg2884
g3131
sg2885
I78
sg2886
I1
sg2887
I78
sg2888
I6
sg2889
g2079
sg2890
g78
sg2891
(dp3132
g2893
F1271.0858154296875
sg389
I1
ssg2894
F0.0184
sg2895
F0.0025000000000000001
sg2896
F0.0
sg2897
F0.0
sbag1
(g2877
g3
Ntp3134
Rp3133
(dp3135
g2880
g0
sg2881
g2864
sg2882
VL1
p3136
sg2884
g3136
sg2885
I79
sg2886
I1
sg2887
I79
sg2888
I6
sg2889
g1193
sg2890
g78
sg2891
(dp3137
g2893
F1086.5244140625
sg389
I1
ssg2894
F0.022100000000000002
sg2895
F0.0033
sg2896
F0.0
sg2897
F0.0
sbag1
(g2877
g3
Ntp3139
Rp3138
(dp3140
g2880
g0
sg2881
g2864
sg2882
VL1
p3141
sg2884
g3141
sg2885
I79
sg2886
I1
sg2887
I79
sg2888
I78
sg2889
g1193
sg2890
g2079
sg2891
(dp3142
g2893
F75.811279296875
sg389
I1
ssg2894
F0.0094999999999999998
sg2895
F0.0014
sg2896
F0.0
sg2897
F0.0
sbag1
(g2877
g3
Ntp3144
Rp3143
(dp3145
g2880
g0
sg2881
g2864
sg2882
VL1
p3146
sg2884
g3146
sg2885
I79
sg2886
I1
sg2887
I79
sg2888
I80
sg2889
g1193
sg2890
g2710
sg2891
(dp3147
g2893
F1042.4539794921875
sg389
I1
ssg2894
F0.0117
sg2895
F0.0014499999999999999
sg2896
F0.0
sg2897
F0.0
sbag1
(g2877
g3
Ntp3149
Rp3148
(dp3150
g2880
g0
sg2881
g2864
sg2882
VL1
p3151
sg2884
g3151
sg2885
I80
sg2886
I1
sg2887
I80
sg2888
I6
sg2889
g2710
sg2890
g78
sg2891
(dp3152
g2893
F1020.2045288085938
sg389
I1
ssg2894
F0.0117
sg2895
F0.0014499999999999999
sg2896
F0.0
sg2897
F0.0
sbag1
(g2877
g3
Ntp3154
Rp3153
(dp3155
g2880
g0
sg2881
g2864
sg2882
VL1
p3156
sg2884
g3156
sg2885
I81
sg2886
I1
sg2887
I81
sg2888
I9
sg2889
g1787
sg2890
g1153
sg2891
(dp3157
g2893
F2258.28271484375
sg389
I1
ssg2894
F0.0033769999999999998
sg2895
F0.000203
sg2896
F0.0
sg2897
F0.0
sbag1
(g2877
g3
Ntp3159
Rp3158
(dp3160
g2880
g0
sg2881
g2864
sg2882
VL1
p3161
sg2884
g3161
sg2885
I81
sg2886
I1
sg2887
I81
sg2888
I23
sg2889
g1787
sg2890
g2301
sg2891
(dp3162
g2893
F1031.45361328125
sg389
I1
ssg2894
F0.0074089999999999998
sg2895
F0.00034299999999999999
sg2896
F0.0
sg2897
F0.0
sbag1
(g2877
g3
Ntp3164
Rp3163
(dp3165
g2880
g0
sg2881
g2864
sg2882
VL1
p3166
sg2884
g3166
sg2885
I82
sg2886
I1
sg2887
I82
sg2888
I83
sg2889
g975
sg2890
g2483
sg2891
(dp3167
g2893
F471.6236572265625
sg389
I1
ssg2894
F0.022200000000000001
sg2895
F0.0011999999999999999
sg2896
F0.0
sg2897
F0.0
sbag1
(g2877
g3
Ntp3169
Rp3168
(dp3170
g2880
g0
sg2881
g2864
sg2882
VL2
p3171
sg2884
g3171
sg2885
I82
sg2886
I1
sg2887
I82
sg2888
I83
sg2889
g975
sg2890
g2483
sg2891
(dp3172
g2893
F471.6236572265625
sg389
I1
ssg2894
F0.022200000000000001
sg2895
F0.0011999999999999999
sg2896
F0.0
sg2897
F0.0
sbag1
(g2877
g3
Ntp3174
Rp3173
(dp3175
g2880
g0
sg2881
g2864
sg2882
VL1
p3176
sg2884
g3176
sg2885
I82
sg2886
I1
sg2887
I82
sg2888
I84
sg2889
g975
sg2890
g1571
sg2891
(dp3177
g2893
F806.9849853515625
sg389
I1
ssg2894
F0.0087600000000000004
sg2895
F0.00069999999999999999
sg2896
F0.0
sg2897
F0.0
sbag1
(g2877
g3
Ntp3179
Rp3178
(dp3180
g2880
g0
sg2881
g2864
sg2882
VL1
p3181
sg2884
g3181
sg2885
I83
sg2886
I1
sg2887
I83
sg2888
I19
sg2889
g2483
sg2890
g1133
sg2891
(dp3182
g2893
F1055.523681640625
sg389
I1
ssg2894
F0.031350000000000003
sg2895
F0.00215
sg2896
F0.0
sg2897
F0.0
sbag1
(g2877
g3
Ntp3184
Rp3183
(dp3185
g2880
g0
sg2881
g2864
sg2882
VL1
p3186
sg2884
g3186
sg2885
I83
sg2886
I1
sg2887
I83
sg2888
I27
sg2889
g2483
sg2890
g839
sg2891
(dp3187
g2893
F1308.0560302734375
sg389
I1
ssg2894
F0.020199999999999999
sg2895
F0.0011999999999999999
sg2896
F0.0
sg2897
F0.0
sbag1
(g2877
g3
Ntp3189
Rp3188
(dp3190
g2880
g0
sg2881
g2864
sg2882
VL1
p3191
sg2884
g3191
sg2885
I85
sg2886
I1
sg2887
I85
sg2888
I86
sg2889
g576
sg2890
g2048
sg2891
(dp3192
g2893
F1127.573974609375
sg389
I1
ssg2894
F0.0041749999999999999
sg2895
F0.001075
sg2896
F0.0
sg2897
F0.0
sbag1
(g2877
g3
Ntp3194
Rp3193
(dp3195
g2880
g0
sg2881
g2864
sg2882
VL1
p3196
sg2884
g3196
sg2885
I85
sg2886
I1
sg2887
I85
sg2888
I87
sg2889
g576
sg2890
g929
sg2891
(dp3197
g2893
F917.138916015625
sg389
I1
ssg2894
F0.0033999999999999998
sg2895
F0.0011999999999999999
sg2896
F0.0
sg2897
F0.0
sbag1
(g2877
g3
Ntp3199
Rp3198
(dp3200
g2880
g0
sg2881
g2864
sg2882
VL1
p3201
sg2884
g3201
sg2885
I85
sg2886
I1
sg2887
I85
sg2888
I88
sg2889
g576
sg2890
g2433
sg2891
(dp3202
g2893
F1073.698974609375
sg389
I1
ssg2894
F0.0083999999999999995
sg2895
F0.0022000000000000001
sg2896
F0.0
sg2897
F0.0
sbag1
(g2877
g3
Ntp3204
Rp3203
(dp3205
g2880
g0
sg2881
g2864
sg2882
VL1
p3206
sg2884
g3206
sg2885
I86
sg2886
I1
sg2887
I86
sg2888
I88
sg2889
g2048
sg2890
g2433
sg2891
(dp3207
g2893
F1065.330810546875
sg389
I1
ssg2894
F0.0041749999999999999
sg2895
F0.001075
sg2896
F0.0
sg2897
F0.0
sbag1
(g2877
g3
Ntp3209
Rp3208
(dp3210
g2880
g0
sg2881
g2864
sg2882
VL1
p3211
sg2884
g3211
sg2885
I87
sg2886
I1
sg2887
I87
sg2888
I88
sg2889
g929
sg2890
g2433
sg2891
(dp3212
g2893
F789.24066162109375
sg389
I1
ssg2894
F0.0076
sg2895
F0.00080000000000000004
sg2896
F0.0
sg2897
F0.0
sbag1
(g2877
g3
Ntp3214
Rp3213
(dp3215
g2880
g0
sg2881
g2864
sg2882
VL1
p3216
sg2884
g3216
sg2885
I87
sg2886
I1
sg2887
I87
sg2888
I104
sg2889
g929
sg2890
g995
sg2891
(dp3217
g2893
F96.681175231933594
sg389
I1
ssg2894
F0.024
sg2895
F0.0038999999999999998
sg2896
F0.0
sg2897
F0.0
sbag1
(g2877
g3
Ntp3219
Rp3218
(dp3220
g2880
g0
sg2881
g2864
sg2882
VL1
p3221
sg2884
g3221
sg2885
I88
sg2886
I1
sg2887
I88
sg2888
I34
sg2889
g2433
sg2890
g1393
sg2891
(dp3222
g2893
F75.386871337890625
sg389
I1
ssg2894
F0.026100000000000002
sg2895
F0.0016999999999999999
sg2896
F0.0
sg2897
F0.0
sbag1
(g2877
g3
Ntp3224
Rp3223
(dp3225
g2880
g0
sg2881
g2864
sg2882
VL1
p3226
sg2884
g3226
sg2885
I88
sg2886
I1
sg2887
I88
sg2888
I37
sg2889
g2433
sg2890
g859
sg2891
(dp3227
g2893
F919.73394775390625
sg389
I1
ssg2894
F0.0089999999999999993
sg2895
F0.001
sg2896
F0.0
sg2897
F0.0
sbag1
(g2877
g3
Ntp3229
Rp3228
(dp3230
g2880
g0
sg2881
g2864
sg2882
VL2
p3231
sg2884
g3231
sg2885
I88
sg2886
I1
sg2887
I88
sg2888
I37
sg2889
g2433
sg2890
g859
sg2891
(dp3232
g2893
F928.724853515625
sg389
I1
ssg2894
F0.0088999999999999999
sg2895
F0.0011000000000000001
sg2896
F0.0
sg2897
F0.0
sbag1
(g2877
g3
Ntp3234
Rp3233
(dp3235
g2880
g0
sg2881
g2864
sg2882
VL1
p3236
sg2884
g3236
sg2885
I88
sg2886
I1
sg2887
I88
sg2888
I89
sg2889
g2433
sg2890
g1173
sg2891
(dp3237
g2893
F1037.5352783203125
sg389
I1
ssg2894
F0.0123
sg2895
F0.0011000000000000001
sg2896
F0.0
sg2897
F0.0
sbag1
(g2877
g3
Ntp3239
Rp3238
(dp3240
g2880
g0
sg2881
g2864
sg2882
VL1
p3241
sg2884
g3241
sg2885
I89
sg2886
I1
sg2887
I89
sg2888
I43
sg2889
g1173
sg2890
g2253
sg2891
(dp3242
g2893
F1460.3238525390625
sg389
I1
ssg2894
F0.0124
sg2895
F0.0020999999999999999
sg2896
F0.0
sg2897
F0.0
sbag1
(g2877
g3
Ntp3244
Rp3243
(dp3245
g2880
g0
sg2881
g2864
sg2882
VL2
p3246
sg2884
g3246
sg2885
I89
sg2886
I1
sg2887
I89
sg2888
I43
sg2889
g1173
sg2890
g2253
sg2891
(dp3247
g2893
F1509.6641845703125
sg389
I1
ssg2894
F0.012
sg2895
F0.002
sg2896
F0.0
sg2897
F0.0
sbag1
(g2877
g3
Ntp3249
Rp3248
(dp3250
g2880
g0
sg2881
g2864
sg2882
VL1
p3251
sg2884
g3251
sg2885
I90
sg2886
I1
sg2887
I90
sg2888
I48
sg2889
g2694
sg2890
g2152
sg2891
(dp3252
g2893
F1362.2706298828125
sg389
I1
ssg2894
F0.0033500000000000001
sg2895
F0.00055000000000000003
sg2896
F0.0
sg2897
F0.0
sbag1
(g2877
g3
Ntp3254
Rp3253
(dp3255
g2880
g0
sg2881
g2864
sg2882
VL1
p3256
sg2884
g3256
sg2885
I91
sg2886
I1
sg2887
I91
sg2888
I60
sg2889
g1771
sg2890
g2679
sg2891
(dp3257
g2893
F1172.7978515625
sg389
I1
ssg2894
F0.016819000000000001
sg2895
F0.001088
sg2896
F0.0
sg2897
F0.0
sbag1
(g2877
g3
Ntp3259
Rp3258
(dp3260
g2880
g0
sg2881
g2864
sg2882
VL1
p3261
sg2884
g3261
sg2885
I92
sg2886
I1
sg2887
I92
sg2888
I62
sg2889
g958
sg2890
g909
sg2891
(dp3262
g2893
F287.34317016601562
sg389
I1
ssg2894
F0.0082000000000000007
sg2895
F0.00089999999999999998
sg2896
F0.0
sg2897
F0.0
sbag1
(g2877
g3
Ntp3264
Rp3263
(dp3265
g2880
g0
sg2881
g2864
sg2882
VL1
p3266
sg2884
g3266
sg2885
I93
sg2886
I1
sg2887
I93
sg2888
I68
sg2889
g2467
sg2890
g2098
sg2891
(dp3267
g2893
F635.76922607421875
sg389
I1
ssg2894
F0.050000000000000003
sg2895
F0.014999999999999999
sg2896
F0.0
sg2897
F0.0
sbag1
(g2877
g3
Ntp3269
Rp3268
(dp3270
g2880
g0
sg2881
g2864
sg2882
VL1
p3271
sg2884
g3271
sg2885
I95
sg2886
I1
sg2887
I95
sg2888
I68
sg2889
g556
sg2890
g2098
sg2891
(dp3272
g2893
F1451.2568359375
sg389
I1
ssg2894
F0.025000000000000001
sg2895
F0.0074999999999999997
sg2896
F0.0
sg2897
F0.0
sbag1
(g2877
g3
Ntp3274
Rp3273
(dp3275
g2880
g0
sg2881
g2864
sg2882
VL1
p3276
sg2884
g3276
sg2885
I95
sg2886
I1
sg2887
I95
sg2888
I71
sg2889
g556
sg2890
g1590
sg2891
(dp3277
g2893
F855.92816162109375
sg389
I1
ssg2894
F0.037499999999999999
sg2895
F0.01125
sg2896
F0.0
sg2897
F0.0
sbag1
(g2877
g3
Ntp3279
Rp3278
(dp3280
g2880
g0
sg2881
g2864
sg2882
VL1
p3281
sg2884
g3281
sg2885
I96
sg2886
I1
sg2887
I96
sg2888
I65
sg2889
g2032
sg2890
g376
sg2891
(dp3282
g2893
F566.07598876953125
sg389
I1
ssg2894
F0.016
sg2895
F0.0013500000000000001
sg2896
F0.0
sg2897
F0.0
sbag1
(g2877
g3
Ntp3284
Rp3283
(dp3285
g2880
g0
sg2881
g2864
sg2882
VL1
p3286
sg2884
g3286
sg2885
I97
sg2886
I1
sg2887
I97
sg2888
I65
sg2889
g945
sg2890
g376
sg2891
(dp3287
g2893
F3160.50390625
sg389
I1
ssg2894
F0.0035890000000000002
sg2895
F0.00051199999999999998
sg2896
F0.0
sg2897
F0.0
sbag1
(g2877
g3
Ntp3289
Rp3288
(dp3290
g2880
g0
sg2881
g2864
sg2882
VL1
p3291
sg2884
g3291
sg2885
I98
sg2886
I1
sg2887
I98
sg2888
I45
sg2889
g2417
sg2890
g413
sg2891
(dp3292
g2893
F146.7281494140625
sg389
I1
ssg2894
F0.0054999999999999997
sg2895
F0.00069999999999999999
sg2896
F0.0
sg2897
F0.0
sbag1
(g2877
g3
Ntp3294
Rp3293
(dp3295
g2880
g0
sg2881
g2864
sg2882
VL1
p3296
sg2884
g3296
sg2885
I98
sg2886
I1
sg2887
I98
sg2888
I114
sg2889
g2417
sg2890
g2498
sg2891
(dp3297
g2893
F762.70263671875
sg389
I1
ssg2894
F0.020199999999999999
sg2895
F0.00080000000000000004
sg2896
F0.0
sg2897
F0.0
sbag1
(g2877
g3
Ntp3299
Rp3298
(dp3300
g2880
g0
sg2881
g2864
sg2882
VL1
p3301
sg2884
g3301
sg2885
I99
sg2886
I1
sg2887
I99
sg2888
I68
sg2889
g724
sg2890
g2098
sg2891
(dp3302
g2893
F845.84918212890625
sg389
I1
ssg2894
F0.01
sg2895
F0.00010000000000000001
sg2896
F0.0
sg2897
F0.0
sbag1
(g2877
g3
Ntp3304
Rp3303
(dp3305
g2880
g0
sg2881
g2864
sg2882
VL1
p3306
sg2884
g3306
sg2885
I100
sg2886
I1
sg2887
I100
sg2888
I68
sg2889
g1213
sg2890
g2098
sg2891
(dp3307
g2893
F842.92327880859375
sg389
I1
ssg2894
F0.02
sg2895
F0.002
sg2896
F0.0
sg2897
F0.0
sbag1
(g2877
g3
Ntp3309
Rp3308
(dp3310
g2880
g0
sg2881
g2864
sg2882
VL1
p3311
sg2884
g3311
sg2885
I100
sg2886
I1
sg2887
I100
sg2888
I74
sg2889
g1213
sg2890
g1324
sg2891
(dp3312
g2893
F3057.07275390625
sg389
I1
ssg2894
F0.014999999999999999
sg2895
F0.0025000000000000001
sg2896
F0.0
sg2897
F0.0
sbag1
(g2877
g3
Ntp3314
Rp3313
(dp3315
g2880
g0
sg2881
g2864
sg2882
VL1
p3316
sg2884
g3316
sg2885
I100
sg2886
I1
sg2887
I100
sg2888
I99
sg2889
g1213
sg2890
g724
sg2891
(dp3317
g2893
F845.84881591796875
sg389
I1
ssg2894
F0.01
sg2895
F0.001
sg2896
F0.0
sg2897
F0.0
sbag1
(g2877
g3
Ntp3319
Rp3318
(dp3320
g2880
g0
sg2881
g2864
sg2882
VL1
p3321
sg2884
g3321
sg2885
I102
sg2886
I1
sg2887
I102
sg2888
I101
sg2889
g2770
sg2890
g1266
sg2891
(dp3322
g2893
F1231.568603515625
sg389
I1
ssg2894
F0.12
sg2895
F0.029999999999999999
sg2896
F0.0
sg2897
F0.0
sbag1
(g2877
g3
Ntp3324
Rp3323
(dp3325
g2880
g0
sg2881
g2864
sg2882
VL1
p3326
sg2884
g3326
sg2885
I103
sg2886
I1
sg2887
I103
sg2888
I100
sg2889
g517
sg2890
g1213
sg2891
(dp3327
g2893
F673.42779541015625
sg389
I1
ssg2894
F0.0083330000000000001
sg2895
F0.0025000000000000001
sg2896
F0.0
sg2897
F0.0
sbag1
(g2877
g3
Ntp3329
Rp3328
(dp3330
g2880
g0
sg2881
g2864
sg2882
VL2
p3331
sg2884
g3331
sg2885
I103
sg2886
I1
sg2887
I103
sg2888
I100
sg2889
g517
sg2890
g1213
sg2891
(dp3332
g2893
F673.42779541015625
sg389
I1
ssg2894
F0.0083330000000000001
sg2895
F0.0025000000000000001
sg2896
F0.0
sg2897
F0.0
sbag1
(g2877
g3
Ntp3334
Rp3333
(dp3335
g2880
g0
sg2881
g2864
sg2882
VL1
p3336
sg2884
g3336
sg2885
I103
sg2886
I1
sg2887
I103
sg2888
I107
sg2889
g517
sg2890
g1233
sg2891
(dp3337
g2893
F400.34613037109375
sg389
I1
ssg2894
F0.041667000000000003
sg2895
F0.012749999999999999
sg2896
F0.0
sg2897
F0.0
sbag1
(g2877
g3
Ntp3339
Rp3338
(dp3340
g2880
g0
sg2881
g2864
sg2882
VL1
p3341
sg2884
g3341
sg2885
I105
sg2886
I1
sg2887
I105
sg2888
I116
sg2889
g2063
sg2890
g1605
sg2891
(dp3342
g2893
F141.67738342285156
sg389
I1
ssg2894
F0.01
sg2895
F0.0
sg2896
F0.0
sg2897
F0.0
sbag1
(g2877
g3
Ntp3344
Rp3343
(dp3345
g2880
g0
sg2881
g2864
sg2882
VL1
p3346
sg2884
g3346
sg2885
I105
sg2886
I1
sg2887
I105
sg2888
I118
sg2889
g2063
sg2890
g325
sg2891
(dp3347
g2893
F141.67732238769531
sg389
I1
ssg2894
F0.02
sg2895
F0.0
sg2896
F0.0
sg2897
F0.0
sbag1
(g2877
g3
Ntp3349
Rp3348
(dp3350
g2880
g0
sg2881
g2864
sg2882
VL1
p3351
sg2884
g3351
sg2885
I107
sg2886
I1
sg2887
I107
sg2888
I68
sg2889
g1233
sg2890
g2098
sg2891
(dp3352
g2893
F89.036445617675781
sg389
I1
ssg2894
F0.066667000000000004
sg2895
F0.02
sg2896
F0.0
sg2897
F0.0
sbag1
(g2877
g3
Ntp3354
Rp3353
(dp3355
g2880
g0
sg2881
g2864
sg2882
VL1
p3356
sg2884
g3356
sg2885
I109
sg2886
I1
sg2887
I109
sg2888
I107
sg2889
g2452
sg2890
g1233
sg2891
(dp3357
g2893
F192.98686218261719
sg389
I1
ssg2894
F0.066667000000000004
sg2895
F0.02
sg2896
F0.0
sg2897
F0.0
sbag1
(g2877
g3
Ntp3359
Rp3358
(dp3360
g2880
g0
sg2881
g2864
sg2882
VL1
p3361
sg2884
g3361
sg2885
I110
sg2886
I1
sg2887
I110
sg2888
I76
sg2889
g2725
sg2890
g1831
sg2891
(dp3362
g2893
F474.96368408203125
sg389
I1
ssg2894
F0.23999999999999999
sg2895
F0.02
sg2896
F0.0
sg2897
F0.0
sbag1
(g2877
g3
Ntp3364
Rp3363
(dp3365
g2880
g0
sg2881
g2864
sg2882
VL1
p3366
sg2884
g3366
sg2885
I112
sg2886
I1
sg2887
I112
sg2888
I56
sg2889
g1806
sg2890
g1869
sg2891
(dp3367
g2893
F1737.1376953125
sg389
I1
ssg2894
F0.0126
sg2895
F0.00080000000000000004
sg2896
F0.0
sg2897
F0.0
sbag1
(g2877
g3
Ntp3369
Rp3368
(dp3370
g2880
g0
sg2881
g2864
sg2882
VL2
p3371
sg2884
g3371
sg2885
I112
sg2886
I1
sg2887
I112
sg2888
I56
sg2889
g1806
sg2890
g1869
sg2891
(dp3372
g2893
F969.07781982421875
sg389
I1
ssg2894
F0.022599999999999999
sg2895
F0.0011999999999999999
sg2896
F0.0
sg2897
F0.0
sbag1
(g2877
g3
Ntp3374
Rp3373
(dp3375
g2880
g0
sg2881
g2864
sg2882
VL3
p3376
sg2884
g3376
sg2885
I112
sg2886
I1
sg2887
I112
sg2888
I56
sg2889
g1806
sg2890
g1869
sg2891
(dp3377
g2893
F1698.5235595703125
sg389
I1
ssg2894
F0.012800000000000001
sg2895
F0.0016999999999999999
sg2896
F0.0
sg2897
F0.0
sbag1
(g2877
g3
Ntp3379
Rp3378
(dp3380
g2880
g0
sg2881
g2864
sg2882
VL1
p3381
sg2884
g3381
sg2885
I112
sg2886
I1
sg2887
I112
sg2888
I91
sg2889
g1806
sg2890
g1771
sg2891
(dp3382
g2893
F1172.79833984375
sg389
I1
ssg2894
F0.016819000000000001
sg2895
F0.001088
sg2896
F0.0
sg2897
F0.0
sbag1
(g2877
g3
Ntp3384
Rp3383
(dp3385
g2880
g0
sg2881
g2864
sg2882
VL1
p3386
sg2884
g3386
sg2885
I112
sg2886
I1
sg2887
I112
sg2888
I115
sg2889
g1806
sg2890
g1249
sg2891
(dp3387
g2893
F637.98468017578125
sg389
I1
ssg2894
F0.017149999999999999
sg2895
F0.00115
sg2896
F0.0
sg2897
F0.0
sbag1
(g2877
g3
Ntp3389
Rp3388
(dp3390
g2880
g0
sg2881
g2864
sg2882
VL1
p3391
sg2884
g3391
sg2885
I113
sg2886
I1
sg2887
I113
sg2888
I45
sg2889
g2017
sg2890
g413
sg2891
(dp3392
g2893
F598.3682861328125
sg389
I1
ssg2894
F0.014500000000000001
sg2895
F0.0015
sg2896
F0.0
sg2897
F0.0
sbag1
(g2877
g3
Ntp3394
Rp3393
(dp3395
g2880
g0
sg2881
g2864
sg2882
VL1
p3396
sg2884
g3396
sg2885
I113
sg2886
I1
sg2887
I113
sg2888
I98
sg2889
g2017
sg2890
g2417
sg2891
(dp3397
g2893
F887.3836669921875
sg389
I1
ssg2894
F0.0089999999999999993
sg2895
F0.00080000000000000004
sg2896
F0.0
sg2897
F0.0
sbag1
(g2877
g3
Ntp3399
Rp3398
(dp3400
g2880
g0
sg2881
g2864
sg2882
VL1
p3401
sg2884
g3401
sg2885
I114
sg2886
I1
sg2887
I114
sg2888
I45
sg2889
g2498
sg2890
g413
sg2891
(dp3402
g2893
F1401.6563720703125
sg389
I1
ssg2894
F0.01055
sg2895
F0.00044999999999999999
sg2896
F0.0
sg2897
F0.0
sbag1
(g2877
g3
Ntp3404
Rp3403
(dp3405
g2880
g0
sg2881
g2864
sg2882
VL1
p3406
sg2884
g3406
sg2885
I115
sg2886
I1
sg2887
I115
sg2888
I56
sg2889
g1249
sg2890
g1869
sg2891
(dp3407
g2893
F637.9842529296875
sg389
I1
ssg2894
F0.017149999999999999
sg2895
F0.00115
sg2896
F0.0
sg2897
F0.0
sbag1
(g2877
g3
Ntp3409
Rp3408
(dp3410
g2880
g0
sg2881
g2864
sg2882
VL1
p3411
sg2884
g3411
sg2885
I116
sg2886
I1
sg2887
I116
sg2888
I118
sg2889
g1605
sg2890
g325
sg2891
(dp3412
g2893
F141.67724609375
sg389
I1
ssg2894
F0.01
sg2895
F0.0
sg2896
F0.0
sg2897
F0.0
sbasVGens
p3413
(lp3414
g292
ag242
ag132
ag465
ag1714
ag2323
ag2221
ag1685
ag793
ag1410
ag1943
ag2269
ag342
ag2738
asVLoad
p3415
(lp3416
g501
ag2663
ag540
ag2645
ag2307
ag452
ag2208
ag433
ag599
ag1308
asVSlack
p3417
(lp3418
g1972
asVMachines
p3419
(lp3420
g1972
ag292
ag242
ag132
ag465
ag1714
ag2323
ag2221
ag1685
ag793
ag1410
ag1943
ag2269
ag342
ag2738
asVPowerPlant
p3421
(lp3422
sVBus
p3423
(lp3424
g295
ag275
ag245
ag225
ag138
ag114
ag78
ag494
ag468
ag1153
ag2657
ag1717
ag822
ag2326
ag1443
ag533
ag1976
ag740
ag2224
ag1133
ag2639
ag1688
ag796
ag2301
ag1413
ag445
ag1946
ag839
ag2202
ag2272
ag1393
ag426
ag345
ag1831
ag592
ag2079
ag1193
ag2710
ag1787
ag2483
ag576
ag2048
ag929
ag2433
ag2063
ag2725
ag1605
ag2741
ag325
ag1301
asVShunt
p3425
(lp3426
g272
ag222
ag111
ag72
ag1150
ag1440
ag1130
ag2298
ag836
ag1390
ag1828
ag2076
ag1190
ag2707
ag1784
ag2480
ag573
ag2045
ag926
ag2430
ag322
asVTimer
p3427
(dp3428
sVBA
p3429
NsVAreaSlack
p3430
NsVcv
p3431
(dp3432
VPm
p3433
F0.0
sVICerror
p3434
I0
sVQ
p3435
F0.0
sVP
p3436
F0.0
sVIC
p3437
I0
sVSCEsum
p3438
F0.0
sVPe
p3439
F0.0
sVIC0
p3440
I0
ssVbeta
p3441
F0.0
sbag1
(g2865
g3
Ntp3443
Rp3442
(dp3444
g2868
g0
sg2869
I2
sg2870
I6
sg2871
I4
sg2872
I0
sg2873
I14
sg2874
(lp3445
sg3413
(lp3446
g1100
ag1656
ag612
ag2511
ag2174
ag2541
asg3415
(lp3447
g2104
ag1018
ag708
ag1289
asg3417
(lp3448
sg3419
(lp3449
g1100
ag1656
ag612
ag2511
ag2174
ag2541
asg3421
(lp3450
sg3423
(lp3451
g1103
ag2627
ag1659
ag776
ag615
ag2098
ag1011
ag2514
ag1590
ag701
ag2177
ag1324
ag975
ag1571
ag2467
ag556
ag724
ag1213
ag1266
ag2770
ag517
ag995
ag2544
ag1233
ag1282
asg3425
(lp3452
g773
ag2095
ag1587
ag1321
ag972
ag1568
ag553
ag721
ag1210
ag1263
ag2767
ag514
ag992
ag1230
asg3427
(dp3453
sg3429
Nsg3430
Nsg3431
(dp3454
g3433
F0.0
sg3434
I0
sg3435
F0.0
sg3436
F0.0
sg3437
I0
sg3438
F0.0
sg3439
F0.0
sg3440
I0
ssg3441
F0.0
sbag1
(g2865
g3
Ntp3456
Rp3455
(dp3457
g2868
g0
sg2869
I3
sg2870
I13
sg2871
I9
sg2872
I0
sg2873
I16
sg2874
(lp3458
sg3413
(lp3459
g1914
ag2352
ag2599
ag1360
ag1885
ag672
ag2570
ag876
ag642
ag2120
ag1031
ag1743
ag1461
asg3415
(lp3460
g760
ag2158
ag1067
ag1347
ag400
ag2405
ag1555
ag37
ag1812
asg3417
(lp3461
sg3419
(lp3462
g1914
ag2352
ag2599
ag1360
ag1885
ag672
ag2570
ag876
ag642
ag2120
ag1031
ag1743
ag1461
asg3421
(lp3463
sg3423
(lp3464
g1917
ag859
ag2355
ag1083
ag2602
ag1640
ag753
ag2253
ag1363
ag413
ag1888
ag675
ag2152
ag1060
ag2573
ag1621
ag879
ag2384
ag1340
ag393
ag1869
ag645
ag2123
ag1034
ag2679
ag1746
ag909
ag2399
ag1464
ag376
ag1850
ag1173
ag2694
ag1771
ag958
ag1549
ag2032
ag945
ag2417
ag2452
ag17
ag1806
ag2017
ag2498
ag1249
asg3425
(lp3465
g856
ag1080
ag1637
ag2250
ag2149
ag1618
ag2381
ag1866
ag2676
ag906
ag373
ag1847
ag1170
ag2449
ag1803
ag2014
asg3427
(dp3466
sg3429
Nsg3430
Nsg3431
(dp3467
g3433
F0.0
sg3434
I0
sg3435
F0.0
sg3436
F0.0
sg3437
I0
sg3438
F0.0
sg3439
F0.0
sg3440
I0
ssg3441
F0.0
sbasVBAdict
p3468
(dp3469
sVBA
p3470
(lp3471
sVBranch
p3472
(lp3473
g2876
ag2898
ag2903
ag2908
ag2913
ag2918
ag2923
ag2928
ag2933
ag2938
ag2943
ag2948
ag2953
ag2958
ag2963
ag2968
ag2973
ag2978
ag2983
ag2988
ag2993
ag2998
ag3003
ag3008
ag3013
ag3018
ag3023
ag3028
ag3033
ag3038
ag3043
ag3048
ag3053
ag3058
ag3063
ag3068
ag3073
ag3078
ag3083
ag3088
ag3093
ag3098
ag3103
ag3108
ag3113
ag3118
ag3123
ag3128
ag3133
ag3138
ag3143
ag3148
ag3153
ag3158
ag3163
ag3168
ag3173
ag3178
ag3183
ag3188
ag3193
ag3198
ag3203
ag3208
ag3213
ag3218
ag3223
ag3228
ag3233
ag3238
ag3243
ag3248
ag3253
ag3258
ag3263
ag3268
ag3273
ag3278
ag3283
ag3288
ag3293
ag3298
ag3303
ag3308
ag3313
ag3318
ag3323
ag3328
ag3333
ag3338
ag3343
ag3348
ag3353
ag3358
ag3363
ag3368
ag3373
ag3378
ag3383
ag3388
ag3393
ag3398
ag3403
ag3408
asVBus
p3474
(lp3475
g295
ag275
ag245
ag225
ag138
ag114
ag78
ag494
ag468
ag1153
ag2657
ag1717
ag822
ag2326
ag1443
ag533
ag1976
ag740
ag2224
ag1133
ag2639
ag1688
ag796
ag2301
ag1413
ag445
ag1946
ag839
ag2202
ag2272
ag1393
ag426
ag345
ag1831
ag592
ag2079
ag1193
ag2710
ag1787
ag2483
ag576
ag2048
ag929
ag2433
ag2063
ag2725
ag1605
ag2741
ag325
ag1301
ag1103
ag2627
ag1659
ag776
ag615
ag2098
ag1011
ag2514
ag1590
ag701
ag2177
ag1324
ag975
ag1571
ag2467
ag556
ag724
ag1213
ag1266
ag2770
ag517
ag995
ag2544
ag1233
ag1282
ag1917
ag859
ag2355
ag1083
ag2602
ag1640
ag753
ag2253
ag1363
ag413
ag1888
ag675
ag2152
ag1060
ag2573
ag1621
ag879
ag2384
ag1340
ag393
ag1869
ag645
ag2123
ag1034
ag2679
ag1746
ag909
ag2399
ag1464
ag376
ag1850
ag1173
ag2694
ag1771
ag958
ag1549
ag2032
ag945
ag2417
ag2452
ag17
ag1806
ag2017
ag2498
ag1249
asVDynamics
p3476
(lp3477
sVGens
p3478
(lp3479
g292
ag242
ag132
ag465
ag1714
ag2323
ag2221
ag1685
ag793
ag1410
ag1943
ag2269
ag342
ag2738
ag1100
ag1656
ag612
ag2511
ag2174
ag2541
ag1914
ag2352
ag2599
ag1360
ag1885
ag672
ag2570
ag876
ag642
ag2120
ag1031
ag1743
ag1461
asVLoad
p3480
(lp3481
g501
ag2663
ag540
ag2645
ag2307
ag452
ag2208
ag433
ag599
ag1308
ag2104
ag1018
ag708
ag1289
ag760
ag2158
ag1067
ag1347
ag400
ag2405
ag1555
ag37
ag1812
asVPerturbance
p3482
(lp3483
sVAGCramp
p3484
(lp3485
sVPowerPlant
p3486
(lp3487
sVShunt
p3488
(lp3489
g272
ag222
ag111
ag72
ag1150
ag1440
ag1130
ag2298
ag836
ag1390
ag1828
ag2076
ag1190
ag2707
ag1784
ag2480
ag573
ag2045
ag926
ag2430
ag322
ag773
ag2095
ag1587
ag1321
ag972
ag1568
ag553
ag721
ag1210
ag1263
ag2767
ag514
ag992
ag1230
ag856
ag1080
ag1637
ag2250
ag2149
ag1618
ag2381
ag1866
ag2676
ag906
ag373
ag1847
ag1170
ag2449
ag1803
ag2014
asVSlack
p3490
(lp3491
g1972
asVTimer
p3492
(dp3493
sVglobalSlack
p3494
g1972
sVFilter
p3495
(lp3496
sVNgen
p3497
I34
sVNbus
p3498
I120
sVNload
p3499
I23
sVNarea
p3500
I3
sVNzone
p3501
I1
sVNbrsec
p3502
I104
sVNshunt
p3503
I51
sVSbase
p3504
F100.0
sVMachines
p3505
(lp3506
g1972
ag292
ag242
ag132
ag465
ag1714
ag2323
ag2221
ag1685
ag793
ag1410
ag1943
ag2269
ag342
ag2738
ag1100
ag1656
ag612
ag2511
ag2174
ag2541
ag1914
ag2352
ag2599
ag1360
ag1885
ag672
ag2570
ag876
ag642
ag2120
ag1031
ag1743
ag1461
asVLog
p3507
(lp3508
g0
ag501
ag2663
ag540
ag2645
ag2307
ag452
ag2208
ag433
ag599
ag1308
ag2104
ag1018
ag708
ag1289
ag760
ag2158
ag1067
ag1347
ag400
ag2405
ag1555
ag37
ag1812
ag295
ag275
ag245
ag225
ag138
ag114
ag78
ag494
ag468
ag1153
ag2657
ag1717
ag822
ag2326
ag1443
ag533
ag1976
ag740
ag2224
ag1133
ag2639
ag1688
ag796
ag2301
ag1413
ag445
ag1946
ag839
ag2202
ag2272
ag1393
ag426
ag345
ag1831
ag592
ag2079
ag1193
ag2710
ag1787
ag2483
ag576
ag2048
ag929
ag2433
ag2063
ag2725
ag1605
ag2741
ag325
ag1301
ag1103
ag2627
ag1659
ag776
ag615
ag2098
ag1011
ag2514
ag1590
ag701
ag2177
ag1324
ag975
ag1571
ag2467
ag556
ag724
ag1213
ag1266
ag2770
ag517
ag995
ag2544
ag1233
ag1282
ag1917
ag859
ag2355
ag1083
ag2602
ag1640
ag753
ag2253
ag1363
ag413
ag1888
ag675
ag2152
ag1060
ag2573
ag1621
ag879
ag2384
ag1340
ag393
ag1869
ag645
ag2123
ag1034
ag2679
ag1746
ag909
ag2399
ag1464
ag376
ag1850
ag1173
ag2694
ag1771
ag958
ag1549
ag2032
ag945
ag2417
ag2452
ag17
ag1806
ag2017
ag2498
ag1249
ag1972
ag292
ag242
ag132
ag465
ag1714
ag2323
ag2221
ag1685
ag793
ag1410
ag1943
ag2269
ag342
ag2738
ag1100
ag1656
ag612
ag2511
ag2174
ag2541
ag1914
ag2352
ag2599
ag1360
ag1885
ag672
ag2570
ag876
ag642
ag2120
ag1031
ag1743
ag1461
ag2864
ag3442
ag3455
ag272
ag222
ag111
ag72
ag1150
ag1440
ag1130
ag2298
ag836
ag1390
ag1828
ag2076
ag1190
ag2707
ag1784
ag2480
ag573
ag2045
ag926
ag2430
ag322
ag773
ag2095
ag1587
ag1321
ag972
ag1568
ag553
ag721
ag1210
ag1263
ag2767
ag514
ag992
ag1230
ag856
ag1080
ag1637
ag2250
ag2149
ag1618
ag2381
ag1866
ag2676
ag906
ag373
ag1847
ag1170
ag2449
ag1803
ag2014
ag2876
ag2898
ag2903
ag2908
ag2913
ag2918
ag2923
ag2928
ag2933
ag2938
ag2943
ag2948
ag2953
ag2958
ag2963
ag2968
ag2973
ag2978
ag2983
ag2988
ag2993
ag2998
ag3003
ag3008
ag3013
ag3018
ag3023
ag3028
ag3033
ag3038
ag3043
ag3048
ag3053
ag3058
ag3063
ag3068
ag3073
ag3078
ag3083
ag3088
ag3093
ag3098
ag3103
ag3108
ag3113
ag3118
ag3123
ag3128
ag3133
ag3138
ag3143
ag3148
ag3153
ag3158
ag3163
ag3168
ag3173
ag3178
ag3183
ag3188
ag3193
ag3198
ag3203
ag3208
ag3213
ag3218
ag3223
ag3228
ag3233
ag3238
ag3243
ag3248
ag3253
ag3258
ag3263
ag3268
ag3273
ag3278
ag3283
ag3288
ag3293
ag3298
ag3303
ag3308
ag3313
ag3318
ag3323
ag3328
ag3333
ag3338
ag3343
ag3348
ag3353
ag3358
ag3363
ag3368
ag3373
ag3378
ag3383
ag3388
ag3393
ag3398
ag3403
ag3408
asVPSLFmach
p3509
(lp3510
g309
ag259
ag179
ag482
ag1730
ag2339
ag1999
ag2237
ag1701
ag810
ag1427
ag1959
ag1117
ag1672
ag2285
ag1930
ag2368
ag2615
ag1377
ag1901
ag689
ag2586
ag893
ag659
ag2136
ag1048
ag1759
ag1478
ag629
ag2528
ag2190
ag359
ag2557
ag2754
asVPSLFgov
p3511
(lp3512
g1
(cpsltdsim.pslfModels.tgov1
tgov1
p3514
g3
Ntp3515
Rp3513
(dp3516
Vmirror
p3517
g0
sVdydLine
p3518
(lp3519
Vtgov1
p3520
aI1
aVBCH-G1
p3521
aF20.0
aV1
p3522
aV#1
p3523
aVmwcap=4500.0000
p3524
aF0.050000000000000003
aF0.20000000000000001
aF1.0
aF0.0
aF-1.0
aF15.0
aF0.0
asVparams
p3525
I13
sVType
p3526
g3520
sVBusnum
p3527
I1
sVBusnam
p3528
g3521
sVBase_kV
p3529
F20.0
sVId
p3530
g3522
sVRlevel
p3531
g3523
sVGen
p3532
g292
sVmwCap
p3533
F4500.0
sVR
p3534
F0.050000000000000003
sVT1
p3535
F0.20000000000000001
sVVmax
p3536
F1.0
sVVmin
p3537
F0.0
sVT2
p3538
F-1.0
sVT3
p3539
F15.0
sVDt
p3540
F0.0
sbag1
(g3514
g3
Ntp3542
Rp3541
(dp3543
g3517
g0
sg3518
(lp3544
Vtgov1
p3545
aI3
aVBCH-G2
p3546
aF20.0
aV1
p3547
aV#1
p3548
aVmwcap=3700.0000
p3549
aF0.050000000000000003
aF0.20000000000000001
aF1.0
aF0.0
aF-1.0
aF15.0
aF0.0
asg3525
I13
sg3526
g3545
sg3527
I3
sg3528
g3546
sg3529
F20.0
sg3530
g3547
sg3531
g3548
sg3532
g242
sg3533
F3700.0
sg3534
F0.050000000000000003
sg3535
F0.20000000000000001
sg3536
F1.0
sg3537
F0.0
sg3538
F-1.0
sg3539
F15.0
sg3540
F0.0
sbag1
(g3514
g3
Ntp3551
Rp3550
(dp3552
g3517
g0
sg3518
(lp3553
Vtgov1
p3554
aI5
aVBCH-G3
p3555
aF20.0
aV1
p3556
aV#1
p3557
aVmwcap=3700.0000
p3558
aF0.050000000000000003
aF0.20000000000000001
aF1.0
aF0.0
aF-1.0
aF5.0
aF0.0
asg3525
I13
sg3526
g3554
sg3527
I5
sg3528
g3555
sg3529
F20.0
sg3530
g3556
sg3531
g3557
sg3532
g132
sg3533
F3700.0
sg3534
F0.050000000000000003
sg3535
F0.20000000000000001
sg3536
F1.0
sg3537
F0.0
sg3538
F-1.0
sg3539
F5.0
sg3540
F0.0
sbag1
(g3514
g3
Ntp3560
Rp3559
(dp3561
g3517
g0
sg3518
(lp3562
Vtgov1
p3563
aI17
aVWA-GEN
p3564
aF20.0
aV1
p3565
aV#1
p3566
aVmwcap=8300.0000
p3567
aF0.050000000000000003
aF0.20000000000000001
aF1.0
aF0.0
aF-1.0
aF15.0
aF0.0
asg3525
I13
sg3526
g3563
sg3527
I17
sg3528
g3564
sg3529
F20.0
sg3530
g3565
sg3531
g3566
sg3532
g1972
sg3533
F8300.0
sg3534
F0.050000000000000003
sg3535
F0.20000000000000001
sg3536
F1.0
sg3537
F0.0
sg3538
F-1.0
sg3539
F15.0
sg3540
F0.0
sbag1
(g3514
g3
Ntp3569
Rp3568
(dp3570
g3517
g0
sg3518
(lp3571
Vtgov1
p3572
aI19
aVORE-G19
p3573
aF20.0
aV1
p3574
aV#1
p3575
aVmwcap=3600.0000
p3576
aF0.050000000000000003
aF0.20000000000000001
aF1.0
aF0.0
aF-1.0
aF15.0
aF0.0
asg3525
I13
sg3526
g3572
sg3527
I19
sg3528
g3573
sg3529
F20.0
sg3530
g3574
sg3531
g3575
sg3532
g2221
sg3533
F3600.0
sg3534
F0.050000000000000003
sg3535
F0.20000000000000001
sg3536
F1.0
sg3537
F0.0
sg3538
F-1.0
sg3539
F15.0
sg3540
F0.0
sbag1
(g3514
g3
Ntp3578
Rp3577
(dp3579
g3517
g0
sg3518
(lp3580
Vtgov1
p3581
aI23
aVORE-G23
p3582
aF20.0
aV1
p3583
aV#1
p3584
aVmwcap=5000.0000
p3585
aF0.050000000000000003
aF0.20000000000000001
aF1.0
aF0.0
aF-1.0
aF15.0
aF0.0
asg3525
I13
sg3526
g3581
sg3527
I23
sg3528
g3582
sg3529
F20.0
sg3530
g3583
sg3531
g3584
sg3532
g793
sg3533
F5000.0
sg3534
F0.050000000000000003
sg3535
F0.20000000000000001
sg3536
F1.0
sg3537
F0.0
sg3538
F-1.0
sg3539
F15.0
sg3540
F0.0
sbag1
(g3514
g3
Ntp3587
Rp3586
(dp3588
g3517
g0
sg3518
(lp3589
Vtgov1
p3590
aI30
aVMNT-GEN
p3591
aF20.0
aV1
p3592
aV#1
p3593
aVmwcap=1800.0000
p3594
aF0.050000000000000003
aF0.20000000000000001
aF1.0
aF0.0
aF-1.0
aF5.0
aF0.0
asg3525
I13
sg3526
g3590
sg3527
I30
sg3528
g3591
sg3529
F20.0
sg3530
g3592
sg3531
g3593
sg3532
g1100
sg3533
F1800.0
sg3534
F0.050000000000000003
sg3535
F0.20000000000000001
sg3536
F1.0
sg3537
F0.0
sg3538
F-1.0
sg3539
F5.0
sg3540
F0.0
sbag1
(g3514
g3
Ntp3596
Rp3595
(dp3597
g3517
g0
sg3518
(lp3598
Vtgov1
p3599
aI32
aVCOLS-GEN
p3600
aF20.0
aV1
p3601
aV#1
p3602
aVmwcap=2300.0000
p3603
aF0.050000000000000003
aF0.10000000000000001
aF1.0
aF0.0
aF3.0
aF10.0
aF0.0
asg3525
I13
sg3526
g3599
sg3527
I32
sg3528
g3600
sg3529
F20.0
sg3530
g3601
sg3531
g3602
sg3532
g1656
sg3533
F2300.0
sg3534
F0.050000000000000003
sg3535
F0.10000000000000001
sg3536
F1.0
sg3537
F0.0
sg3538
F3.0
sg3539
F10.0
sg3540
F0.0
sbag1
(g3514
g3
Ntp3605
Rp3604
(dp3606
g3517
g0
sg3518
(lp3607
Vtgov1
p3608
aI37
aVCA-37
p3609
aF20.0
aV1
p3610
aV#1
p3611
aVmwcap=3000.0000
p3612
aF0.050000000000000003
aF0.20000000000000001
aF1.0
aF0.0
aF-1.0
aF5.0
aF0.0
asg3525
I13
sg3526
g3608
sg3527
I37
sg3528
g3609
sg3529
F20.0
sg3530
g3610
sg3531
g3611
sg3532
g1914
sg3533
F3000.0
sg3534
F0.050000000000000003
sg3535
F0.20000000000000001
sg3536
F1.0
sg3537
F0.0
sg3538
F-1.0
sg3539
F5.0
sg3540
F0.0
sbag1
(g3514
g3
Ntp3614
Rp3613
(dp3615
g3517
g0
sg3518
(lp3616
Vtgov1
p3617
aI41
aVSFO-GEN
p3618
aF20.0
aV1
p3619
aV#1
p3620
aVmwcap=5200.0000
p3621
aF0.20000000000000001
aF0.5
aF1.0
aF0.0
aF4.0
aF10.0
aF0.0
asg3525
I13
sg3526
g3617
sg3527
I41
sg3528
g3618
sg3529
F20.0
sg3530
g3619
sg3531
g3620
sg3532
g2599
sg3533
F5200.0
sg3534
F0.20000000000000001
sg3535
F0.5
sg3536
F1.0
sg3537
F0.0
sg3538
F4.0
sg3539
F10.0
sg3540
F0.0
sbag1
(g3514
g3
Ntp3623
Rp3622
(dp3624
g3517
g0
sg3518
(lp3625
Vtgov1
p3626
aI45
aVSC-G3
p3627
aF20.0
aV1
p3628
aV#1
p3629
aVmwcap=3500.0000
p3630
aF0.20000000000000001
aF0.5
aF1.0
aF0.0
aF4.0
aF10.0
aF0.0
asg3525
I13
sg3526
g3626
sg3527
I45
sg3528
g3627
sg3529
F20.0
sg3530
g3628
sg3531
g3629
sg3532
g1360
sg3533
F3500.0
sg3534
F0.20000000000000001
sg3535
F0.5
sg3536
F1.0
sg3537
F0.0
sg3538
F4.0
sg3539
F10.0
sg3540
F0.0
sbag1
(g3514
g3
Ntp3632
Rp3631
(dp3633
g3517
g0
sg3518
(lp3634
Vtgov1
p3635
aI48
aVSC-G1
p3636
aF20.0
aV1
p3637
aV#1
p3638
aVmwcap=17800.0000
p3639
aF0.050000000000000003
aF0.10000000000000001
aF1.0
aF0.0
aF3.0
aF10.0
aF0.0
asg3525
I13
sg3526
g3635
sg3527
I48
sg3528
g3636
sg3529
F20.0
sg3530
g3637
sg3531
g3638
sg3532
g672
sg3533
F17800.0
sg3534
F0.050000000000000003
sg3535
F0.10000000000000001
sg3536
F1.0
sg3537
F0.0
sg3538
F3.0
sg3539
F10.0
sg3540
F0.0
sbag1
(g3514
g3
Ntp3641
Rp3640
(dp3642
g3517
g0
sg3518
(lp3643
Vtgov1
p3644
aI53
aVSDG-GEN
p3645
aF20.0
aV1
p3646
aV#1
p3647
aVmwcap=3500.0000
p3648
aF0.050000000000000003
aF0.10000000000000001
aF1.0
aF0.0
aF3.0
aF10.0
aF0.0
asg3525
I13
sg3526
g3644
sg3527
I53
sg3528
g3645
sg3529
F20.0
sg3530
g3646
sg3531
g3647
sg3532
g876
sg3533
F3500.0
sg3534
F0.050000000000000003
sg3535
F0.10000000000000001
sg3536
F1.0
sg3537
F0.0
sg3538
F3.0
sg3539
F10.0
sg3540
F0.0
sbag1
(g3514
g3
Ntp3650
Rp3649
(dp3651
g3517
g0
sg3518
(lp3652
Vtgov1
p3653
aI58
aVNEV-G1
p3654
aF20.0
aV1
p3655
aV#1
p3656
aVmwcap=3200.0000
p3657
aF0.050000000000000003
aF0.20000000000000001
aF1.0
aF0.0
aF-1.0
aF15.0
aF0.0
asg3525
I13
sg3526
g3653
sg3527
I58
sg3528
g3654
sg3529
F20.0
sg3530
g3655
sg3531
g3656
sg3532
g642
sg3533
F3200.0
sg3534
F0.050000000000000003
sg3535
F0.20000000000000001
sg3536
F1.0
sg3537
F0.0
sg3538
F-1.0
sg3539
F15.0
sg3540
F0.0
sbag1
(g3514
g3
Ntp3659
Rp3658
(dp3660
g3517
g0
sg3518
(lp3661
Vtgov1
p3662
aI59
aVNEV-G2
p3663
aF20.0
aV1
p3664
aV#1
p3665
aVmwcap=5200.0000
p3666
aF0.20000000000000001
aF0.5
aF1.0
aF0.0
aF4.0
aF10.0
aF0.0
asg3525
I13
sg3526
g3662
sg3527
I59
sg3528
g3663
sg3529
F20.0
sg3530
g3664
sg3531
g3665
sg3532
g2120
sg3533
F5200.0
sg3534
F0.20000000000000001
sg3535
F0.5
sg3536
F1.0
sg3537
F0.0
sg3538
F4.0
sg3539
F10.0
sg3540
F0.0
sbag1
(g3514
g3
Ntp3668
Rp3667
(dp3669
g3517
g0
sg3518
(lp3670
Vtgov1
p3671
aI62
aVPHX-GEN
p3672
aF20.0
aV1
p3673
aV#1
p3674
aVmwcap=11300.0000
p3675
aF0.20000000000000001
aF0.5
aF1.0
aF0.0
aF4.0
aF10.0
aF0.0
asg3525
I13
sg3526
g3671
sg3527
I62
sg3528
g3672
sg3529
F20.0
sg3530
g3673
sg3531
g3674
sg3532
g1743
sg3533
F11300.0
sg3534
F0.20000000000000001
sg3535
F0.5
sg3536
F1.0
sg3537
F0.0
sg3538
F4.0
sg3539
F10.0
sg3540
F0.0
sbag1
(g3514
g3
Ntp3677
Rp3676
(dp3678
g3517
g0
sg3518
(lp3679
Vtgov1
p3680
aI65
aVAZ-65
p3681
aF20.0
aV1
p3682
aV#1
p3683
aVmwcap=10000.0000
p3684
aF0.25
aF0.10000000000000001
aF1.0
aF0.0
aF3.0
aF10.0
aF0.0
asg3525
I13
sg3526
g3680
sg3527
I65
sg3528
g3681
sg3529
F20.0
sg3530
g3682
sg3531
g3683
sg3532
g1461
sg3533
F10000.0
sg3534
F0.25
sg3535
F0.10000000000000001
sg3536
F1.0
sg3537
F0.0
sg3538
F3.0
sg3539
F10.0
sg3540
F0.0
sbag1
(g3514
g3
Ntp3686
Rp3685
(dp3687
g3517
g0
sg3518
(lp3688
Vtgov1
p3689
aI71
aVCOLO-GEN
p3690
aF20.0
aV1
p3691
aV#1
p3692
aVmwcap=9700.0000
p3693
aF0.20000000000000001
aF0.10000000000000001
aF1.0
aF0.0
aF3.0
aF10.0
aF0.0
asg3525
I13
sg3526
g3689
sg3527
I71
sg3528
g3690
sg3529
F20.0
sg3530
g3691
sg3531
g3692
sg3532
g2511
sg3533
F9700.0
sg3534
F0.20000000000000001
sg3535
F0.10000000000000001
sg3536
F1.0
sg3537
F0.0
sg3538
F3.0
sg3539
F10.0
sg3540
F0.0
sbag1
(g3514
g3
Ntp3695
Rp3694
(dp3696
g3517
g0
sg3518
(lp3697
Vtgov1
p3698
aI76
aVIDA-76
p3699
aF20.0
aV1
p3700
aV#1
p3701
aVmwcap=2200.0000
p3702
aF0.050000000000000003
aF0.20000000000000001
aF1.0
aF0.0
aF-1.0
aF5.0
aF0.0
asg3525
I13
sg3526
g3698
sg3527
I76
sg3528
g3699
sg3529
F20.0
sg3530
g3700
sg3531
g3701
sg3532
g342
sg3533
F2200.0
sg3534
F0.050000000000000003
sg3535
F0.20000000000000001
sg3536
F1.0
sg3537
F0.0
sg3538
F-1.0
sg3539
F5.0
sg3540
F0.0
sbag1
(g3514
g3
Ntp3704
Rp3703
(dp3705
g3517
g0
sg3518
(lp3706
Vtgov1
p3707
aI107
aVNEV-107
p3708
aF20.0
aV1
p3709
aV#1
p3710
aVmwcap=1200.0000
p3711
aF0.050000000000000003
aF0.10000000000000001
aF1.0
aF0.0
aF3.0
aF10.0
aF0.0
asg3525
I13
sg3526
g3707
sg3527
I107
sg3528
g3708
sg3529
F20.0
sg3530
g3709
sg3531
g3710
sg3532
g2541
sg3533
F1200.0
sg3534
F0.050000000000000003
sg3535
F0.10000000000000001
sg3536
F1.0
sg3537
F0.0
sg3538
F3.0
sg3539
F10.0
sg3540
F0.0
sbag1
(g3514
g3
Ntp3713
Rp3712
(dp3714
g3517
g0
sg3518
(lp3715
Vtgov1
p3716
aI118
aVALB-GEN
p3717
aF20.0
aV1
p3718
aV#1
p3719
aVmwcap=13000.0000
p3720
aF0.20000000000000001
aF0.10000000000000001
aF1.0
aF0.0
aF3.0
aF10.0
aF0.0
asg3525
I13
sg3526
g3716
sg3527
I118
sg3528
g3717
sg3529
F20.0
sg3530
g3718
sg3531
g3719
sg3532
g2738
sg3533
F13000.0
sg3534
F0.20000000000000001
sg3535
F0.10000000000000001
sg3536
F1.0
sg3537
F0.0
sg3538
F3.0
sg3539
F10.0
sg3540
F0.0
sbasVHsys
p3721
F976820.0
sVbranchDict
p3722
(dp3723
V65
p3724
(dp3725
g3111
g3108
ssV45
p3726
(dp3727
g3046
g3053
sg3051
g3048
ssV95
p3728
(dp3729
g3271
g3273
ssV85
p3730
(dp3731
g3191
g3198
ssV14
p3732
(dp3733
g2941
g2938
ssV112
p3734
(dp3735
g3366
g3383
sg3376
g3373
sg3371
g3368
ssV107
p3736
(dp3737
g3351
g3348
ssV53
p3738
(dp3739
g3066
g3063
ssV43
p3740
(dp3741
g3031
g3028
sg3041
g3038
sg3036
g3033
ssV23
p3742
(dp3743
g2971
g2973
sg2986
g2983
sg2981
g2978
ssV102
p3744
(dp3745
g3321
g3318
ssV115
p3746
(dp3747
g3406
g3403
ssV93
p3748
(dp3749
g3266
g3263
ssV83
p3750
(dp3751
g3181
g3183
ssV62
p3752
(dp3753
g3096
g3103
sg3101
g3098
ssV32
p3754
(dp3755
g2996
g2998
ssV110
p3756
(dp3757
g3361
g3358
ssV12
p3758
(dp3759
g2936
g2933
ssV105
p3760
(dp3761
g3341
g3343
ssV92
p3762
(dp3763
g3261
g3258
ssV82
p3764
(dp3765
g3166
g3173
sg3171
g3168
ssV71
p3766
(dp3767
g3116
g3113
ssV79
p3768
(dp3769
g3136
g3143
ssV41
p3770
(dp3771
g3026
g3023
ssV100
p3772
(dp3773
g3306
g3313
ssV39
p3774
(dp3775
g3016
g3013
sg3021
g3018
ssV113
p3776
(dp3777
g3391
g3393
ssV19
p3778
(dp3779
g2966
g2963
ssV91
p3780
(dp3781
g3256
g3253
ssV81
p3782
(dp3783
g3156
g3158
ssV99
p3784
(dp3785
g3301
g3298
ssV60
p3786
(dp3787
g3091
g3088
ssV78
p3788
(dp3789
g3126
g3123
sg3131
g3128
ssV89
p3790
(dp3791
g3241
g3238
sg3246
g3243
ssV30
p3792
(dp3793
g2991
g2988
ssV6
p3794
(dp3795
g2926
g2923
ssV5
p3796
(dp3797
g2906
g2918
sg2916
g2913
ssV48
p3798
(dp3799
g3061
g3058
ssV3
p3800
(dp3801
g2901
g2898
ssV103
p3802
(dp3803
g3326
g3333
sg3331
g3328
ssV1
p3804
(dp3805
g2883
g2876
ssV116
p3806
(dp3807
g3411
g3408
ssV90
p3808
(dp3809
g3251
g3248
ssV80
p3810
(dp3811
g3151
g3148
ssV98
p3812
(dp3813
g3291
g3293
ssV88
p3814
(dp3815
g3221
g3233
sg3231
g3228
ssV9
p3816
(dp3817
g2931
g2928
ssV37
p3818
(dp3819
g3006
g3003
sg3011
g3008
ssV17
p3820
(dp3821
g2946
g2958
ssV109
p3822
(dp3823
g3356
g3353
ssV97
p3824
(dp3825
g3286
g3283
ssV87
p3826
(dp3827
g3211
g3213
ssV76
p3828
(dp3829
g3121
g3118
ssV56
p3830
(dp3831
g3071
g3083
ssV114
p3832
(dp3833
g3401
g3398
ssV96
p3834
(dp3835
g3281
g3278
ssV86
p3836
(dp3837
g3206
g3203
sssVInitTime
p3838
F0.32396697998046875
sb.