(dp0
S'fdot'
p1
(lp2
F0.0
aF0.0
aF0.0
aF0.013513513513513513
aF0.013513518668509816
aF0.013513518668509816
aF0.013513518668509816
aF0.013513518668509816
aF0.013513518668509816
aF0.013513518668509816
aF0.013513518668509816
aF0.013513518668509816
aF0.013513518668509816
aF0.013513518668509816
aF0.013513518668509816
aF0.013513518668509816
aF0.013513518668509816
aF0.013513518668509816
aF0.013513518668509816
aF0.013513518668509816
aF0.013513518668509816
asS'Pm'
p3
(lp4
F100.00000762939453
aF100.00000762939453
aF100.00000762939453
aF100.00000762939453
aF100.00000762939453
aF100.00000762939453
aF100.00000762939453
aF100.00000762939453
aF100.00000762939453
aF100.00000762939453
aF100.00000762939453
aF100.00000762939453
aF100.00000762939453
aF100.00000762939453
aF100.00000762939453
aF100.00000762939453
aF100.00000762939453
aF100.00000762939453
aF100.00000762939453
aF100.00000762939453
aF100.00000762939453
asS't'
p5
(lp6
F0.0
aF1.0
aF2.0
aF3.0
aF4.0
aF5.0
aF6.0
aF7.0
aF8.0
aF9.0
aF10.0
aF11.0
aF12.0
aF13.0
aF14.0
aF15.0
aF16.0
aF17.0
aF18.0
aF19.0
aF20.0
asS'Qgen'
p7
(lp8
F0.0
aF0.0
aF0.0
aF0.0
aF0.0
aF0.0
aF0.0
aF0.0
aF0.0
aF0.0
aF0.0
aF0.0
aF0.0
aF0.0
aF0.0
aF0.0
aF0.0
aF0.0
aF0.0
aF0.0
aF0.0
asS'deltaF'
p9
(lp10
F0.0
aF0.0
aF0.0
aF0.013513513513513598
aF0.013787441344222939
aF0.013975609054646121
aF0.014165740112443537
aF0.014358453775705993
aF0.01455378912869798
aF0.014751781863755697
aF0.014952468132626073
aF0.01515588457869721
aF0.015362068343859781
aF0.015571057075291384
aF0.015782888932328598
aF0.015997602593435856
aF0.016215237263267568
aF0.016435832679825957
aF0.016659429121717251
aF0.016886067415506023
aF0.01711578894317034
asS'Pload'
p11
(lp12
F100.0
aF100.0
aF80.0
aF80.0
aF80.0
aF80.0
aF80.0
aF80.0
aF80.0
aF80.0
aF80.0
aF80.0
aF80.0
aF80.0
aF80.0
aF80.0
aF80.0
aF80.0
aF80.0
aF80.0
aF80.0
asS'Qload'
p13
(lp14
F0.0
aF0.0
aF0.0
aF0.0
aF0.0
aF0.0
aF0.0
aF0.0
aF0.0
aF0.0
aF0.0
aF0.0
aF0.0
aF0.0
aF0.0
aF0.0
aF0.0
aF0.0
aF0.0
aF0.0
aF0.0
asS'Pacc'
p15
(lp16
F0.0
aF0.0
aF20.0
aF20.000007629394531
aF20.000007629394531
aF20.000007629394531
aF20.000007629394531
aF20.000007629394531
aF20.000007629394531
aF20.000007629394531
aF20.000007629394531
aF20.000007629394531
aF20.000007629394531
aF20.000007629394531
aF20.000007629394531
aF20.000007629394531
aF20.000007629394531
aF20.000007629394531
aF20.000007629394531
aF20.000007629394531
aF20.000007629394531
asS'f'
p17
(lp18
F1.0
aF1.0
aF1.0
aF1.0135135135135136
aF1.0273009548577365
aF1.0412765639123827
aF1.0554423040248262
aF1.0698007578005322
aF1.0843545469292302
aF1.0991063287929859
aF1.1140587969256119
aF1.1292146815043092
aF1.1445767498481689
aF1.1601478069234603
aF1.1759306958557889
aF1.1919282984492248
aF1.2081435357124923
aF1.2245793683923183
aF1.2412387975140355
aF1.2581248649295416
aF1.2752406538727119
asS'Hsys'
p19
F740.0
sS'Pe'
p20
(lp21
F100.00000762939453
aF100.00000762939453
aF80.0
aF80.0
aF80.0
aF80.0
aF80.0
aF80.0
aF80.0
aF80.0
aF80.0
aF80.0
aF80.0
aF80.0
aF80.0
aF80.0
aF80.0
aF80.0
aF80.0
aF80.0
aF80.0
asS'Sbase'
p22
F100.0
sS'A1'
p23
(dp24
S'S011'
p25
(dp26
S'Va'
p27
(lp28
F-0.67385661602020264
aF-0.67385661602020264
aF-0.67385661602020264
aF-0.67385661602020264
aF-0.67385661602020264
aF-0.67385661602020264
aF-0.67385661602020264
aF-0.67385661602020264
aF-0.67385661602020264
aF-0.67385661602020264
aF-0.67385661602020264
aF-0.67385661602020264
aF-0.67385661602020264
aF-0.67385661602020264
aF-0.67385661602020264
aF-0.67385661602020264
aF-0.67385661602020264
aF-0.67385661602020264
aF-0.67385661602020264
aF-0.67385661602020264
aF-0.67385661602020264
asS'Vm'
p29
(lp30
F1.0
aF1.0
aF1.0
aF1.0
aF1.0
aF1.0
aF1.0
aF1.0
aF1.0
aF1.0
aF1.0
aF1.0
aF1.0
aF1.0
aF1.0
aF1.0
aF1.0
aF1.0
aF1.0
aF1.0
aF1.0
asS'S0'
p31
(dp32
S'Hpu'
p33
F3.7000000000000002
sS'Pe'
p34
(lp35
F50.000007629394531
aF50.000007629394531
aF40.0
aF40.000003814697266
aF40.000003814697266
aF40.000003814697266
aF40.000003814697266
aF40.000003814697266
aF40.000003814697266
aF40.000003814697266
aF40.000003814697266
aF40.000003814697266
aF40.000003814697266
aF40.000003814697266
aF40.000003814697266
aF40.000003814697266
aF40.000003814697266
aF40.000003814697266
aF40.000003814697266
aF40.000003814697266
aF40.000003814697266
asS'Q'
p36
(lp37
F2.7583422660827637
aF2.7583422660827637
aF1.7633944749832153
aF1.7634074687957764
aF1.7634074687957764
aF1.7634074687957764
aF1.7634074687957764
aF1.7634074687957764
aF1.7634074687957764
aF1.7634074687957764
aF1.7634074687957764
aF1.7634074687957764
aF1.7634074687957764
aF1.7634074687957764
aF1.7634074687957764
aF1.7634074687957764
aF1.7634074687957764
aF1.7634074687957764
aF1.7634074687957764
aF1.7634074687957764
aF1.7634074687957764
asS'Pm'
p38
(lp39
F50.000007629394531
aF50.000007629394531
aF50.000007629394531
aF50.000007629394531
aF50.000007629394531
aF50.000007629394531
aF50.000007629394531
aF50.000007629394531
aF50.000007629394531
aF50.000007629394531
aF50.000007629394531
aF50.000007629394531
aF50.000007629394531
aF50.000007629394531
aF50.000007629394531
aF50.000007629394531
aF50.000007629394531
aF50.000007629394531
aF50.000007629394531
aF50.000007629394531
aF50.000007629394531
asS'St'
p40
(lp41
I1
aI1
aI1
aI1
aI1
aI1
aI1
aI1
aI1
aI1
aI1
aI1
aI1
aI1
aI1
aI1
aI1
aI1
aI1
aI1
aI1
asS'Pe_error'
p42
(lp43
F0.0
aF0.0
aF-7.62939453125e-06
aF7.62939453125e-06
aF0.0
aF0.0
aF0.0
aF0.0
aF0.0
aF0.0
aF0.0
aF0.0
aF0.0
aF0.0
aF0.0
aF0.0
aF0.0
aF0.0
aF0.0
aF0.0
aF0.0
asS'Pe_calc'
p44
(lp45
F50.000007629394531
aF50.000007629394531
aF40.000007629394531
aF39.999996185302734
aF40.000003814697266
aF40.000003814697266
aF40.000003814697266
aF40.000003814697266
aF40.000003814697266
aF40.000003814697266
aF40.000003814697266
aF40.000003814697266
aF40.000003814697266
aF40.000003814697266
aF40.000003814697266
aF40.000003814697266
aF40.000003814697266
aF40.000003814697266
aF40.000003814697266
aF40.000003814697266
aF40.000003814697266
asS'Slack'
p46
I1
sS'Mbase'
p47
F100.0
ssS'BusNum'
p48
I11
sS'BusName'
p49
S'11'
p50
ssS'Nload'
p51
I2
sS'Ngen'
p52
I2
sS'AreaNum'
p53
I1
sS'x002'
p54
(dp55
g29
(lp56
F0.99849432706832886
aF0.99849432706832886
aF0.99903768301010132
aF0.99903768301010132
aF0.99903768301010132
aF0.99903768301010132
aF0.99903768301010132
aF0.99903768301010132
aF0.99903768301010132
aF0.99903768301010132
aF0.99903768301010132
aF0.99903768301010132
aF0.99903768301010132
aF0.99903768301010132
aF0.99903768301010132
aF0.99903768301010132
aF0.99903768301010132
aF0.99903768301010132
aF0.99903768301010132
aF0.99903768301010132
aF0.99903768301010132
asg49
S'2'
p57
sg48
I2
sg27
(lp58
F-0.72395294904708862
aF-0.72395294904708862
aF-0.71390587091445923
aF-0.71390587091445923
aF-0.71390587091445923
aF-0.71390587091445923
aF-0.71390587091445923
aF-0.71390587091445923
aF-0.71390587091445923
aF-0.71390587091445923
aF-0.71390587091445923
aF-0.71390587091445923
aF-0.71390587091445923
aF-0.71390587091445923
aF-0.71390587091445923
aF-0.71390587091445923
aF-0.71390587091445923
aF-0.71390587091445923
aF-0.71390587091445923
aF-0.71390587091445923
aF-0.71390587091445923
assS'L003'
p59
(dp60
S'L0'
p61
(dp62
S'P'
p63
(lp64
F100.0
aF100.0
aF80.0
aF80.0
aF80.0
aF80.0
aF80.0
aF80.0
aF80.0
aF80.0
aF80.0
aF80.0
aF80.0
aF80.0
aF80.0
aF80.0
aF80.0
aF80.0
aF80.0
aF80.0
aF80.0
asS'St'
p65
(lp66
I1
aI1
aI1
aI1
aI1
aI1
aI1
aI1
aI1
aI1
aI1
aI1
aI1
aI1
aI1
aI1
aI1
aI1
aI1
aI1
aI1
asS'Q'
p67
(lp68
F0.0
aF0.0
aF0.0
aF0.0
aF0.0
aF0.0
aF0.0
aF0.0
aF0.0
aF0.0
aF0.0
aF0.0
aF0.0
aF0.0
aF0.0
aF0.0
aF0.0
aF0.0
aF0.0
aF0.0
aF0.0
assg27
(lp69
F-0.72896814346313477
aF-0.72896814346313477
aF-0.71791362762451172
aF-0.71791362762451172
aF-0.71791362762451172
aF-0.71791362762451172
aF-0.71791362762451172
aF-0.71791362762451172
aF-0.71791362762451172
aF-0.71791362762451172
aF-0.71791362762451172
aF-0.71791362762451172
aF-0.71791362762451172
aF-0.71791362762451172
aF-0.71791362762451172
aF-0.71791362762451172
aF-0.71791362762451172
aF-0.71791362762451172
aF-0.71791362762451172
aF-0.71791362762451172
aF-0.71791362762451172
asg29
(lp70
F0.99848175048828125
aF0.99848175048828125
aF0.99902969598770142
aF0.99902963638305664
aF0.99902963638305664
aF0.99902963638305664
aF0.99902963638305664
aF0.99902963638305664
aF0.99902963638305664
aF0.99902963638305664
aF0.99902963638305664
aF0.99902963638305664
aF0.99902963638305664
aF0.99902963638305664
aF0.99902963638305664
aF0.99902963638305664
aF0.99902963638305664
aF0.99902963638305664
aF0.99902963638305664
aF0.99902963638305664
aF0.99902963638305664
asS'L1'
p71
(dp72
g63
(lp73
F20.0
aF20.0
aF20.0
aF20.0
aF20.0
aF20.0
aF20.0
aF20.0
aF20.0
aF20.0
aF20.0
aF20.0
aF20.0
aF20.0
aF20.0
aF20.0
aF20.0
aF20.0
aF20.0
aF20.0
aF20.0
asg65
(lp74
I0
aI0
aI0
aI0
aI0
aI0
aI0
aI0
aI0
aI0
aI0
aI0
aI0
aI0
aI0
aI0
aI0
aI0
aI0
aI0
aI0
asg67
(lp75
F0.0
aF0.0
aF0.0
aF0.0
aF0.0
aF0.0
aF0.0
aF0.0
aF0.0
aF0.0
aF0.0
aF0.0
aF0.0
aF0.0
aF0.0
aF0.0
aF0.0
aF0.0
aF0.0
aF0.0
aF0.0
assg48
I3
sg49
S'3'
p76
ssS'G021'
p77
(dp78
g27
(lp79
F-0.67385661602020264
aF-0.67385661602020264
aF-0.67385661602020264
aF-0.67385661602020264
aF-0.67385661602020264
aF-0.67385661602020264
aF-0.67385661602020264
aF-0.67385661602020264
aF-0.67385661602020264
aF-0.67385661602020264
aF-0.67385661602020264
aF-0.67385661602020264
aF-0.67385661602020264
aF-0.67385661602020264
aF-0.67385661602020264
aF-0.67385661602020264
aF-0.67385661602020264
aF-0.67385661602020264
aF-0.67385661602020264
aF-0.67385661602020264
aF-0.67385661602020264
asg29
(lp80
F1.0
aF1.0
aF1.0
aF1.0
aF1.0
aF1.0
aF1.0
aF1.0
aF1.0
aF1.0
aF1.0
aF1.0
aF1.0
aF1.0
aF1.0
aF1.0
aF1.0
aF1.0
aF1.0
aF1.0
aF1.0
asg48
I21
sS'G0'
p81
(dp82
S'Pe'
p83
(lp84
F50.0
aF50.0
aF40.0
aF39.999996185302734
aF39.999996185302734
aF39.999996185302734
aF39.999996185302734
aF39.999996185302734
aF39.999996185302734
aF39.999996185302734
aF39.999996185302734
aF39.999996185302734
aF39.999996185302734
aF39.999996185302734
aF39.999996185302734
aF39.999996185302734
aF39.999996185302734
aF39.999996185302734
aF39.999996185302734
aF39.999996185302734
aF39.999996185302734
asS'Hpu'
p85
F3.7000000000000002
sS'Slack'
p86
I0
sS'Mbase'
p87
F100.0
sS'St'
p88
(lp89
I1
aI1
aI1
aI1
aI1
aI1
aI1
aI1
aI1
aI1
aI1
aI1
aI1
aI1
aI1
aI1
aI1
aI1
aI1
aI1
aI1
asS'Pm'
p90
(lp91
F50.0
aF50.0
aF50.0
aF50.0
aF50.0
aF50.0
aF50.0
aF50.0
aF50.0
aF50.0
aF50.0
aF50.0
aF50.0
aF50.0
aF50.0
aF50.0
aF50.0
aF50.0
aF50.0
aF50.0
aF50.0
asS'Q'
p92
(lp93
F2.7583422660827637
aF2.7583422660827637
aF1.7633944749832153
aF1.7634087800979614
aF1.7634087800979614
aF1.7634087800979614
aF1.7634087800979614
aF1.7634087800979614
aF1.7634087800979614
aF1.7634087800979614
aF1.7634087800979614
aF1.7634087800979614
aF1.7634087800979614
aF1.7634087800979614
aF1.7634087800979614
aF1.7634087800979614
aF1.7634087800979614
aF1.7634087800979614
aF1.7634087800979614
aF1.7634087800979614
aF1.7634087800979614
assg49
S'21'
p94
ssS'x001'
p95
(dp96
g29
(lp97
F0.99849432706832886
aF0.99849432706832886
aF0.99903768301010132
aF0.99903768301010132
aF0.99903768301010132
aF0.99903768301010132
aF0.99903768301010132
aF0.99903768301010132
aF0.99903768301010132
aF0.99903768301010132
aF0.99903768301010132
aF0.99903768301010132
aF0.99903768301010132
aF0.99903768301010132
aF0.99903768301010132
aF0.99903768301010132
aF0.99903768301010132
aF0.99903768301010132
aF0.99903768301010132
aF0.99903768301010132
aF0.99903768301010132
asg49
S'1'
p98
sg48
I1
sg27
(lp99
F-0.72395294904708862
aF-0.72395294904708862
aF-0.71390587091445923
aF-0.71390587091445923
aF-0.71390587091445923
aF-0.71390587091445923
aF-0.71390587091445923
aF-0.71390587091445923
aF-0.71390587091445923
aF-0.71390587091445923
aF-0.71390587091445923
aF-0.71390587091445923
aF-0.71390587091445923
aF-0.71390587091445923
aF-0.71390587091445923
aF-0.71390587091445923
aF-0.71390587091445923
aF-0.71390587091445923
aF-0.71390587091445923
aF-0.71390587091445923
aF-0.71390587091445923
asssS'N'
p100
I21
sS'meta'
p101
(dp102
S'created'
p103
S'2019/01/24 at 13:39:42'
p104
sS'fileName'
p105
S'noGovStepDAB'
p106
sS'notes'
p107
S'This is a place for a useful notes or comments about the system.'
p108
sS'integrationMethod'
p109
S'AB'
p110
sS'freqEffects'
p111
I0
sS'locations'
p112
(dp113
S'dydPath'
p114
(lp115
S'C:\\LTD\\pslf_systems\\eele554\\ee554.dyd'
p116
asS'pslfPath'
p117
S'C:\\Program Files (x86)\\GE PSLF'
p118
sS'fullMiddlewareFilePath'
p119
S'C:\\Program Files (x86)\\GE PSLF\\PslfMiddleware'
p120
sS'savPath'
p121
S'C:\\LTD\\pslf_systems\\eele554\\ee554.sav'
p122
sss.
