(dp0
S'fdot'
p1
(lp2
F0.0
aF0.0
aF0.0
aF0.013513513513513513
aF0.013245038165161942
aF0.013076992092623413
aF0.012914615762892307
aF0.012758138992338608
aF0.012607218884795782
aF0.012461525028813415
aF0.01232077179562909
aF0.012184677133611207
aF0.012052998611535883
aF0.011925493635308331
aF0.011801955111785511
aF0.011682172914265657
aF0.011565969103787781
aF0.011453160489962396
aF0.011343593373539037
aF0.011237107081586463
aF0.011133568212914046
asS'Pm'
p3
(lp4
F100.00000762939453
aF100.00000762939453
aF100.00000762939453
aF100.00000762939453
aF100.00000762939453
aF100.00000762939453
aF100.00000762939453
aF100.00000762939453
aF100.00000762939453
aF100.00000762939453
aF100.00000762939453
aF100.00000762939453
aF100.00000762939453
aF100.00000762939453
aF100.00000762939453
aF100.00000762939453
aF100.00000762939453
aF100.00000762939453
aF100.00000762939453
aF100.00000762939453
aF100.00000762939453
asS't'
p5
(lp6
F0.0
aF1.0
aF2.0
aF3.0
aF4.0
aF5.0
aF6.0
aF7.0
aF8.0
aF9.0
aF10.0
aF11.0
aF12.0
aF13.0
aF14.0
aF15.0
aF16.0
aF17.0
aF18.0
aF19.0
aF20.0
asS'Qgen'
p7
(lp8
F0.0
aF0.0
aF0.0
aF0.0
aF0.0
aF0.0
aF0.0
aF0.0
aF0.0
aF0.0
aF0.0
aF0.0
aF0.0
aF0.0
aF0.0
aF0.0
aF0.0
aF0.0
aF0.0
aF0.0
aF0.0
asS'deltaF'
p9
(lp10
F0.0
aF0.0
aF0.0
aF0.020270270270270174
aF0.013110800490986119
aF0.012992969056354164
aF0.012833427598026637
aF0.012679900607061923
aF0.012531758831024309
aF0.012388678100822226
aF0.012250395179036921
aF0.012116629802602308
aF0.0119871593504981
aF0.011861741147194627
aF0.011740185850024121
aF0.011622281815505842
aF0.011507867198548905
aF0.011396756183049694
aF0.011288809815327205
aF0.011183863935610328
aF0.011081798778577845
asS'Pload'
p11
(lp12
F100.0
aF100.0
aF80.0
aF80.0
aF80.0
aF80.0
aF80.0
aF80.0
aF80.0
aF80.0
aF80.0
aF80.0
aF80.0
aF80.0
aF80.0
aF80.0
aF80.0
aF80.0
aF80.0
aF80.0
aF80.0
asS'Qload'
p13
(lp14
F0.0
aF0.0
aF0.0
aF0.0
aF0.0
aF0.0
aF0.0
aF0.0
aF0.0
aF0.0
aF0.0
aF0.0
aF0.0
aF0.0
aF0.0
aF0.0
aF0.0
aF0.0
aF0.0
aF0.0
aF0.0
asS'Pacc'
p15
(lp16
F0.0
aF0.0
aF20.0
aF20.000007629394531
aF20.000003814697266
aF20.000007629394531
aF20.000003814697266
aF20.000007629394531
aF20.000003814697266
aF20.000007629394531
aF20.000003814697266
aF20.000007629394531
aF20.000003814697266
aF20.000007629394531
aF20.000003814697266
aF20.000007629394531
aF20.000003814697266
aF20.000007629394531
aF20.000003814697266
aF20.000007629394531
aF20.000003814697266
asS'f'
p17
(lp18
F1.0
aF1.0
aF1.0
aF1.0202702702702702
aF1.0333810707612563
aF1.0463740398176105
aF1.0592074674156371
aF1.071887368022699
aF1.0844191268537233
aF1.0968078049545456
aF1.1090582001335825
aF1.1211748299361848
aF1.1331619892866829
aF1.1450237304338775
aF1.1567639162839016
aF1.1683861980994075
aF1.1798940652979564
aF1.1912908214810061
aF1.2025796312963333
aF1.2137634952319436
aF1.2248452940105215
asS'Hsys'
p19
F740.0
sS'Pe'
p20
(lp21
F100.00000762939453
aF100.00000762939453
aF80.0
aF80.000003814697266
aF80.0
aF80.000003814697266
aF80.0
aF80.000003814697266
aF80.0
aF80.000003814697266
aF80.0
aF80.000003814697266
aF80.0
aF80.000003814697266
aF80.0
aF80.000003814697266
aF80.0
aF80.000003814697266
aF80.0
aF80.000003814697266
aF80.0
asS'Sbase'
p22
F100.0
sS'A1'
p23
(dp24
S'S011'
p25
(dp26
S'Va'
p27
(lp28
F-0.67385661602020264
aF-0.67385661602020264
aF-0.67385661602020264
aF-0.67385661602020264
aF-0.67385661602020264
aF-0.67385661602020264
aF-0.67385661602020264
aF-0.67385661602020264
aF-0.67385661602020264
aF-0.67385661602020264
aF-0.67385661602020264
aF-0.67385661602020264
aF-0.67385661602020264
aF-0.67385661602020264
aF-0.67385661602020264
aF-0.67385661602020264
aF-0.67385661602020264
aF-0.67385661602020264
aF-0.67385661602020264
aF-0.67385661602020264
aF-0.67385661602020264
asS'Vm'
p29
(lp30
F1.0
aF1.0
aF1.0
aF1.0
aF1.0
aF1.0
aF1.0
aF1.0
aF1.0
aF1.0
aF1.0
aF1.0
aF1.0
aF1.0
aF1.0
aF1.0
aF1.0
aF1.0
aF1.0
aF1.0
aF1.0
asS'S0'
p31
(dp32
S'Hpu'
p33
F3.7000000000000002
sS'Pe'
p34
(lp35
F50.000007629394531
aF50.000007629394531
aF40.0
aF50.000007629394531
aF50.000007629394531
aF50.000007629394531
aF50.000007629394531
aF50.000007629394531
aF50.000007629394531
aF50.000007629394531
aF50.000007629394531
aF50.000007629394531
aF50.000007629394531
aF50.000007629394531
aF50.000007629394531
aF50.000007629394531
aF50.000007629394531
aF50.000007629394531
aF50.000007629394531
aF50.000007629394531
aF50.000007629394531
asS'Q'
p36
(lp37
F2.7583422660827637
aF2.7583422660827637
aF1.7633944749832153
aF2.2814843654632568
aF2.2814843654632568
aF2.2814843654632568
aF2.2814843654632568
aF2.2814843654632568
aF2.2814843654632568
aF2.2814843654632568
aF2.2814843654632568
aF2.2814843654632568
aF2.2814843654632568
aF2.2814843654632568
aF2.2814843654632568
aF2.2814843654632568
aF2.2814843654632568
aF2.2814843654632568
aF2.2814843654632568
aF2.2814843654632568
aF2.2814843654632568
asS'Pm'
p38
(lp39
F50.000007629394531
aF50.000007629394531
aF50.000007629394531
aF50.000007629394531
aF50.000007629394531
aF50.000007629394531
aF50.000007629394531
aF50.000007629394531
aF50.000007629394531
aF50.000007629394531
aF50.000007629394531
aF50.000007629394531
aF50.000007629394531
aF50.000007629394531
aF50.000007629394531
aF50.000007629394531
aF50.000007629394531
aF50.000007629394531
aF50.000007629394531
aF50.000007629394531
aF50.000007629394531
asS'St'
p40
(lp41
I1
aI1
aI1
aI1
aI1
aI1
aI1
aI1
aI1
aI1
aI1
aI1
aI1
aI1
aI1
aI1
aI1
aI1
aI1
aI1
aI1
asS'Pe_error'
p42
(lp43
F0.0
aF0.0
aF7.62939453125e-06
aF-3.814697265625e-06
aF1.9073486328125e-06
aF-1.9073486328125e-06
aF1.9073486328125e-06
aF-1.9073486328125e-06
aF1.9073486328125e-06
aF-1.9073486328125e-06
aF1.9073486328125e-06
aF-1.9073486328125e-06
aF1.9073486328125e-06
aF-1.9073486328125e-06
aF1.9073486328125e-06
aF-1.9073486328125e-06
aF1.9073486328125e-06
aF-1.9073486328125e-06
aF1.9073486328125e-06
aF-1.9073486328125e-06
aF1.9073486328125e-06
asS'Pe_calc'
p44
(lp45
F50.000007629394531
aF50.000007629394531
aF40.000007629394531
aF50.000003814697266
aF50.000009536743164
aF50.000005722045898
aF50.000009536743164
aF50.000005722045898
aF50.000009536743164
aF50.000005722045898
aF50.000009536743164
aF50.000005722045898
aF50.000009536743164
aF50.000005722045898
aF50.000009536743164
aF50.000005722045898
aF50.000009536743164
aF50.000005722045898
aF50.000009536743164
aF50.000005722045898
aF50.000009536743164
asS'Slack'
p46
I1
sS'Mbase'
p47
F100.0
ssS'BusNum'
p48
I11
sS'BusName'
p49
S'11'
p50
ssS'Nload'
p51
I2
sS'Ngen'
p52
I2
sS'AreaNum'
p53
I1
sS'x002'
p54
(dp55
g29
(lp56
F0.99849432706832886
aF0.99849432706832886
aF0.99903768301010132
aF0.99899733066558838
aF0.99899733066558838
aF0.99899733066558838
aF0.99899733066558838
aF0.99899733066558838
aF0.99899733066558838
aF0.99899733066558838
aF0.99899733066558838
aF0.99899733066558838
aF0.99899733066558838
aF0.99899733066558838
aF0.99899733066558838
aF0.99899733066558838
aF0.99899733066558838
aF0.99899733066558838
aF0.99899733066558838
aF0.99899733066558838
aF0.99899733066558838
asg49
S'2'
p57
sg48
I2
sg27
(lp58
F-0.72395294904708862
aF-0.72395294904708862
aF-0.71390587091445923
aF-0.72459715604782104
aF-0.72459715604782104
aF-0.72459715604782104
aF-0.72459715604782104
aF-0.72459715604782104
aF-0.72459715604782104
aF-0.72459715604782104
aF-0.72459715604782104
aF-0.72459715604782104
aF-0.72459715604782104
aF-0.72459715604782104
aF-0.72459715604782104
aF-0.72459715604782104
aF-0.72459715604782104
aF-0.72459715604782104
aF-0.72459715604782104
aF-0.72459715604782104
aF-0.72459715604782104
assS'L003'
p59
(dp60
S'L0'
p61
(dp62
S'P'
p63
(lp64
F100.0
aF100.0
aF80.0
aF80.0
aF80.0
aF80.0
aF80.0
aF80.0
aF80.0
aF80.0
aF80.0
aF80.0
aF80.0
aF80.0
aF80.0
aF80.0
aF80.0
aF80.0
aF80.0
aF80.0
aF80.0
asS'St'
p65
(lp66
I1
aI1
aI1
aI1
aI1
aI1
aI1
aI1
aI1
aI1
aI1
aI1
aI1
aI1
aI1
aI1
aI1
aI1
aI1
aI1
aI1
asS'Q'
p67
(lp68
F0.0
aF0.0
aF0.0
aF0.0
aF0.0
aF0.0
aF0.0
aF0.0
aF0.0
aF0.0
aF0.0
aF0.0
aF0.0
aF0.0
aF0.0
aF0.0
aF0.0
aF0.0
aF0.0
aF0.0
aF0.0
assg27
(lp69
F-0.72896814346313477
aF-0.72896814346313477
aF-0.71791362762451172
aF-0.72827130556106567
aF-0.72827130556106567
aF-0.72827130556106567
aF-0.72827130556106567
aF-0.72827130556106567
aF-0.72827130556106567
aF-0.72827130556106567
aF-0.72827130556106567
aF-0.72827130556106567
aF-0.72827130556106567
aF-0.72827130556106567
aF-0.72827130556106567
aF-0.72827130556106567
aF-0.72827130556106567
aF-0.72827130556106567
aF-0.72827130556106567
aF-0.72827130556106567
aF-0.72827130556106567
asg29
(lp70
F0.99848175048828125
aF0.99848175048828125
aF0.99902969598770142
aF0.99897587299346924
aF0.99897587299346924
aF0.99897587299346924
aF0.99897587299346924
aF0.99897587299346924
aF0.99897587299346924
aF0.99897587299346924
aF0.99897587299346924
aF0.99897587299346924
aF0.99897587299346924
aF0.99897587299346924
aF0.99897587299346924
aF0.99897587299346924
aF0.99897587299346924
aF0.99897587299346924
aF0.99897587299346924
aF0.99897587299346924
aF0.99897587299346924
asS'L1'
p71
(dp72
g63
(lp73
F20.0
aF20.0
aF20.0
aF20.0
aF20.0
aF20.0
aF20.0
aF20.0
aF20.0
aF20.0
aF20.0
aF20.0
aF20.0
aF20.0
aF20.0
aF20.0
aF20.0
aF20.0
aF20.0
aF20.0
aF20.0
asg65
(lp74
I0
aI0
aI0
aI0
aI0
aI0
aI0
aI0
aI0
aI0
aI0
aI0
aI0
aI0
aI0
aI0
aI0
aI0
aI0
aI0
aI0
asg67
(lp75
F0.0
aF0.0
aF0.0
aF0.0
aF0.0
aF0.0
aF0.0
aF0.0
aF0.0
aF0.0
aF0.0
aF0.0
aF0.0
aF0.0
aF0.0
aF0.0
aF0.0
aF0.0
aF0.0
aF0.0
aF0.0
assg48
I3
sg49
S'3'
p76
ssS'G021'
p77
(dp78
g27
(lp79
F-0.67385661602020264
aF-0.67385661602020264
aF-0.67385661602020264
aF-0.69456249475479126
aF-0.69456249475479126
aF-0.69456249475479126
aF-0.69456249475479126
aF-0.69456249475479126
aF-0.69456249475479126
aF-0.69456249475479126
aF-0.69456249475479126
aF-0.69456249475479126
aF-0.69456249475479126
aF-0.69456249475479126
aF-0.69456249475479126
aF-0.69456249475479126
aF-0.69456249475479126
aF-0.69456249475479126
aF-0.69456249475479126
aF-0.69456249475479126
aF-0.69456249475479126
asg29
(lp80
F1.0
aF1.0
aF1.0
aF1.0
aF1.0
aF1.0
aF1.0
aF1.0
aF1.0
aF1.0
aF1.0
aF1.0
aF1.0
aF1.0
aF1.0
aF1.0
aF1.0
aF1.0
aF1.0
aF1.0
aF1.0
asg48
I21
sS'G0'
p81
(dp82
S'Pe'
p83
(lp84
F50.0
aF50.0
aF40.0
aF29.999996185302734
aF29.999992370605469
aF29.999996185302734
aF29.999992370605469
aF29.999996185302734
aF29.999992370605469
aF29.999996185302734
aF29.999992370605469
aF29.999996185302734
aF29.999992370605469
aF29.999996185302734
aF29.999992370605469
aF29.999996185302734
aF29.999992370605469
aF29.999996185302734
aF29.999992370605469
aF29.999996185302734
aF29.999992370605469
asS'Hpu'
p85
F3.7000000000000002
sS'Slack'
p86
I0
sS'Mbase'
p87
F100.0
sS'St'
p88
(lp89
I1
aI1
aI1
aI1
aI1
aI1
aI1
aI1
aI1
aI1
aI1
aI1
aI1
aI1
aI1
aI1
aI1
aI1
aI1
aI1
aI1
asS'Pm'
p90
(lp91
F50.0
aF50.0
aF50.0
aF50.0
aF50.0
aF50.0
aF50.0
aF50.0
aF50.0
aF50.0
aF50.0
aF50.0
aF50.0
aF50.0
aF50.0
aF50.0
aF50.0
aF50.0
aF50.0
aF50.0
aF50.0
asS'Q'
p92
(lp93
F2.7583422660827637
aF2.7583422660827637
aF1.7633944749832153
aF1.4532015323638916
aF1.4532009363174439
aF1.453202486038208
aF1.4532009363174439
aF1.453202486038208
aF1.4532009363174439
aF1.453202486038208
aF1.4532009363174439
aF1.453202486038208
aF1.4532009363174439
aF1.453202486038208
aF1.4532009363174439
aF1.453202486038208
aF1.4532009363174439
aF1.453202486038208
aF1.4532009363174439
aF1.453202486038208
aF1.4532009363174439
assg49
S'21'
p94
ssS'x001'
p95
(dp96
g29
(lp97
F0.99849432706832886
aF0.99849432706832886
aF0.99903768301010132
aF0.99897056818008423
aF0.99897056818008423
aF0.99897056818008423
aF0.99897056818008423
aF0.99897056818008423
aF0.99897056818008423
aF0.99897056818008423
aF0.99897056818008423
aF0.99897056818008423
aF0.99897056818008423
aF0.99897056818008423
aF0.99897056818008423
aF0.99897056818008423
aF0.99897056818008423
aF0.99897056818008423
aF0.99897056818008423
aF0.99897056818008423
aF0.99897056818008423
asg49
S'1'
p98
sg48
I1
sg27
(lp99
F-0.72395294904708862
aF-0.72395294904708862
aF-0.71390587091445923
aF-0.72392904758453369
aF-0.72392904758453369
aF-0.72392904758453369
aF-0.72392904758453369
aF-0.72392904758453369
aF-0.72392904758453369
aF-0.72392904758453369
aF-0.72392904758453369
aF-0.72392904758453369
aF-0.72392904758453369
aF-0.72392904758453369
aF-0.72392904758453369
aF-0.72392904758453369
aF-0.72392904758453369
aF-0.72392904758453369
aF-0.72392904758453369
aF-0.72392904758453369
aF-0.72392904758453369
asssS'N'
p100
I21
sS'meta'
p101
(dp102
S'created'
p103
S'2019/02/1 at 20:22:40'
p104
sS'fileName'
p105
S'noGovStepDABw'
p106
sS'notes'
p107
S'\n-20 MW load step at t=2\nsim time = 20 seconds, \nchanged slackTol to 0.25. Timestep = 1\n'
p108
sS'integrationMethod'
p109
S'AB'
p110
sS'freqEffects'
p111
I1
sS'locations'
p112
(dp113
S'dydPath'
p114
(lp115
S'C:\\LTD\\pslf_systems\\eele554\\ee554.exc.dyd'
p116
asS'pslfPath'
p117
S'C:\\Program Files (x86)\\GE PSLF'
p118
sS'fullMiddlewareFilePath'
p119
S'C:\\Program Files (x86)\\GE PSLF\\PslfMiddleware'
p120
sS'savPath'
p121
S'C:\\LTD\\pslf_systems\\eele554\\ee554.sav'
p122
sss.
