(dp0
S'fdot'
p1
(lp2
F0.0
aF0.0
aF0.0
aF0.013513513513513513
aF0.013333338419596351
aF0.013160208499514494
aF0.012993678498816495
aF0.012833340832670185
aF0.012678818998498839
aF0.012529768902407149
aF0.012385874338610006
aF0.012246844145632331
aF0.01211240970942497
aF0.011982322764427246
aF0.011856353451418446
aF0.0117342885974283
aF0.011615930188289415
aF0.011501094008824079
aF0.011389608429332674
aF0.011281313320125032
aF0.011176059078417453
asS'Pm'
p3
(lp4
F100.00000762939453
aF100.00000762939453
aF100.00000762939453
aF100.00000762939453
aF100.00000762939453
aF100.00000762939453
aF100.00000762939453
aF100.00000762939453
aF100.00000762939453
aF100.00000762939453
aF100.00000762939453
aF100.00000762939453
aF100.00000762939453
aF100.00000762939453
aF100.00000762939453
aF100.00000762939453
aF100.00000762939453
aF100.00000762939453
aF100.00000762939453
aF100.00000762939453
aF100.00000762939453
asS't'
p5
(lp6
F0.0
aF1.0
aF2.0
aF3.0
aF4.0
aF5.0
aF6.0
aF7.0
aF8.0
aF9.0
aF10.0
aF11.0
aF12.0
aF13.0
aF14.0
aF15.0
aF16.0
aF17.0
aF18.0
aF19.0
aF20.0
asS'Qgen'
p7
(lp8
F0.0
aF0.0
aF0.0
aF0.0
aF0.0
aF0.0
aF0.0
aF0.0
aF0.0
aF0.0
aF0.0
aF0.0
aF0.0
aF0.0
aF0.0
aF0.0
aF0.0
aF0.0
aF0.0
aF0.0
aF0.0
asS'deltaF'
p9
(lp10
F0.0
aF0.0
aF0.0
aF0.013513513513513598
aF0.013333338419596386
aF0.013160208499514603
aF0.012993678498816497
aF0.012833340832670181
aF0.012678818998498764
aF0.01252976890240709
aF0.012385874338610048
aF0.012246844145632263
aF0.012112409709424954
aF0.011982322764427345
aF0.011856353451418444
aF0.011734288597428311
aF0.011615930188289436
aF0.011501094008824042
aF0.011389608429332565
aF0.011281313320125053
aF0.011176059078417344
asS'Pload'
p11
(lp12
F100.0
aF100.0
aF80.0
aF80.0
aF80.0
aF80.0
aF80.0
aF80.0
aF80.0
aF80.0
aF80.0
aF80.0
aF80.0
aF80.0
aF80.0
aF80.0
aF80.0
aF80.0
aF80.0
aF80.0
aF80.0
asS'Qload'
p13
(lp14
F0.0
aF0.0
aF0.0
aF0.0
aF0.0
aF0.0
aF0.0
aF0.0
aF0.0
aF0.0
aF0.0
aF0.0
aF0.0
aF0.0
aF0.0
aF0.0
aF0.0
aF0.0
aF0.0
aF0.0
aF0.0
asS'Pacc'
p15
(lp16
F0.0
aF0.0
aF20.0
aF20.000007629394531
aF20.000007629394531
aF20.000005722045898
aF20.000005722045898
aF20.000005722045898
aF20.000005722045898
aF20.000005722045898
aF20.000005722045898
aF20.000005722045898
aF20.000005722045898
aF20.000005722045898
aF20.000005722045898
aF20.000005722045898
aF20.000005722045898
aF20.000005722045898
aF20.000005722045898
aF20.000005722045898
aF20.000005722045898
asS'f'
p17
(lp18
F1.0
aF1.0
aF1.0
aF1.0135135135135136
aF1.02684685193311
aF1.0400070604326246
aF1.0530007389314411
aF1.0658340797641113
aF1.07851289876261
aF1.0910426676650171
aF1.1034285420036272
aF1.1156753861492594
aF1.1277877958586844
aF1.1397701186231117
aF1.1516264720745302
aF1.1633607606719585
aF1.1749766908602479
aF1.186477784869072
aF1.1978673932984045
aF1.2091487066185296
aF1.2203247656969469
asS'Hsys'
p19
F740.0
sS'Pe'
p20
(lp21
F100.00000762939453
aF100.00000762939453
aF80.0
aF80.0
aF80.000001907348633
aF80.000001907348633
aF80.000001907348633
aF80.000001907348633
aF80.000001907348633
aF80.000001907348633
aF80.000001907348633
aF80.000001907348633
aF80.000001907348633
aF80.000001907348633
aF80.000001907348633
aF80.000001907348633
aF80.000001907348633
aF80.000001907348633
aF80.000001907348633
aF80.000001907348633
aF80.000001907348633
asS'Sbase'
p22
F100.0
sS'A1'
p23
(dp24
S'S011'
p25
(dp26
S'Va'
p27
(lp28
F-0.67385661602020264
aF-0.67385661602020264
aF-0.67385661602020264
aF-0.67385661602020264
aF-0.67385661602020264
aF-0.67385661602020264
aF-0.67385661602020264
aF-0.67385661602020264
aF-0.67385661602020264
aF-0.67385661602020264
aF-0.67385661602020264
aF-0.67385661602020264
aF-0.67385661602020264
aF-0.67385661602020264
aF-0.67385661602020264
aF-0.67385661602020264
aF-0.67385661602020264
aF-0.67385661602020264
aF-0.67385661602020264
aF-0.67385661602020264
aF-0.67385661602020264
asS'Vm'
p29
(lp30
F1.0
aF1.0
aF1.0
aF1.0
aF1.0
aF1.0
aF1.0
aF1.0
aF1.0
aF1.0
aF1.0
aF1.0
aF1.0
aF1.0
aF1.0
aF1.0
aF1.0
aF1.0
aF1.0
aF1.0
aF1.0
asS'S0'
p31
(dp32
S'Hpu'
p33
F3.7000000000000002
sS'Pe'
p34
(lp35
F50.000007629394531
aF50.000007629394531
aF40.0
aF30.000003814697266
aF30.000001907348633
aF30.000001907348633
aF30.000001907348633
aF30.000001907348633
aF30.000001907348633
aF30.000001907348633
aF30.000001907348633
aF30.000001907348633
aF30.000001907348633
aF30.000001907348633
aF30.000001907348633
aF30.000001907348633
aF30.000001907348633
aF30.000001907348633
aF30.000001907348633
aF30.000001907348633
aF30.000001907348633
asS'Q'
p36
(lp37
F2.7583422660827637
aF2.7583422660827637
aF1.7633944749832153
aF1.4532047510147095
aF1.453222393989563
aF1.453222393989563
aF1.453222393989563
aF1.453222393989563
aF1.453222393989563
aF1.453222393989563
aF1.453222393989563
aF1.453222393989563
aF1.453222393989563
aF1.453222393989563
aF1.453222393989563
aF1.453222393989563
aF1.453222393989563
aF1.453222393989563
aF1.453222393989563
aF1.453222393989563
aF1.453222393989563
asS'Pm'
p38
(lp39
F50.000007629394531
aF50.000007629394531
aF50.000007629394531
aF50.000007629394531
aF50.000007629394531
aF50.000007629394531
aF50.000007629394531
aF50.000007629394531
aF50.000007629394531
aF50.000007629394531
aF50.000007629394531
aF50.000007629394531
aF50.000007629394531
aF50.000007629394531
aF50.000007629394531
aF50.000007629394531
aF50.000007629394531
aF50.000007629394531
aF50.000007629394531
aF50.000007629394531
aF50.000007629394531
asS'St'
p40
(lp41
I1
aI1
aI1
aI1
aI1
aI1
aI1
aI1
aI1
aI1
aI1
aI1
aI1
aI1
aI1
aI1
aI1
aI1
aI1
aI1
aI1
asS'Pe_error'
p42
(lp43
F0.0
aF0.0
aF7.62939453125e-06
aF20.0
aF20.000005722045898
aF20.000006675720215
aF20.000005722045898
aF20.000005722045898
aF20.000005722045898
aF20.000005722045898
aF20.000005722045898
aF20.000005722045898
aF20.000005722045898
aF20.000005722045898
aF20.000005722045898
aF20.000005722045898
aF20.000005722045898
aF20.000005722045898
aF20.000005722045898
aF20.000005722045898
aF20.000005722045898
asS'Pe_calc'
p44
(lp45
F50.000007629394531
aF50.000007629394531
aF40.000007629394531
aF50.000003814697266
aF50.000007629394531
aF50.000008583068848
aF50.000007629394531
aF50.000007629394531
aF50.000007629394531
aF50.000007629394531
aF50.000007629394531
aF50.000007629394531
aF50.000007629394531
aF50.000007629394531
aF50.000007629394531
aF50.000007629394531
aF50.000007629394531
aF50.000007629394531
aF50.000007629394531
aF50.000007629394531
aF50.000007629394531
asS'Slack'
p46
I1
sS'Mbase'
p47
F100.0
ssS'BusNum'
p48
I11
sS'BusName'
p49
S'11'
p50
ssS'Nload'
p51
I2
sS'Ngen'
p52
I2
sS'AreaNum'
p53
I1
sS'x002'
p54
(dp55
g29
(lp56
F0.99849432706832886
aF0.99849432706832886
aF0.99903768301010132
aF0.99897056818008423
aF0.998970627784729
aF0.998970627784729
aF0.998970627784729
aF0.998970627784729
aF0.998970627784729
aF0.998970627784729
aF0.998970627784729
aF0.998970627784729
aF0.998970627784729
aF0.998970627784729
aF0.998970627784729
aF0.998970627784729
aF0.998970627784729
aF0.998970627784729
aF0.998970627784729
aF0.998970627784729
aF0.998970627784729
asg49
S'2'
p57
sg48
I2
sg27
(lp58
F-0.72395294904708862
aF-0.72395294904708862
aF-0.71390587091445923
aF-0.70322316884994507
aF-0.70322316884994507
aF-0.70322316884994507
aF-0.70322316884994507
aF-0.70322316884994507
aF-0.70322316884994507
aF-0.70322316884994507
aF-0.70322316884994507
aF-0.70322316884994507
aF-0.70322316884994507
aF-0.70322316884994507
aF-0.70322316884994507
aF-0.70322316884994507
aF-0.70322316884994507
aF-0.70322316884994507
aF-0.70322316884994507
aF-0.70322316884994507
aF-0.70322316884994507
assS'L003'
p59
(dp60
S'L0'
p61
(dp62
S'P'
p63
(lp64
F100.0
aF100.0
aF80.0
aF80.0
aF80.0
aF80.0
aF80.0
aF80.0
aF80.0
aF80.0
aF80.0
aF80.0
aF80.0
aF80.0
aF80.0
aF80.0
aF80.0
aF80.0
aF80.0
aF80.0
aF80.0
asS'St'
p65
(lp66
I1
aI1
aI1
aI1
aI1
aI1
aI1
aI1
aI1
aI1
aI1
aI1
aI1
aI1
aI1
aI1
aI1
aI1
aI1
aI1
aI1
asS'Q'
p67
(lp68
F0.0
aF0.0
aF0.0
aF0.0
aF0.0
aF0.0
aF0.0
aF0.0
aF0.0
aF0.0
aF0.0
aF0.0
aF0.0
aF0.0
aF0.0
aF0.0
aF0.0
aF0.0
aF0.0
aF0.0
aF0.0
assg27
(lp69
F-0.72896814346313477
aF-0.72896814346313477
aF-0.71791362762451172
aF-0.70756542682647705
aF-0.70756542682647705
aF-0.70756542682647705
aF-0.70756542682647705
aF-0.70756542682647705
aF-0.70756542682647705
aF-0.70756542682647705
aF-0.70756542682647705
aF-0.70756542682647705
aF-0.70756542682647705
aF-0.70756542682647705
aF-0.70756542682647705
aF-0.70756542682647705
aF-0.70756542682647705
aF-0.70756542682647705
aF-0.70756542682647705
aF-0.70756542682647705
aF-0.70756542682647705
asg29
(lp70
F0.99848175048828125
aF0.99848175048828125
aF0.99902969598770142
aF0.99897587299346924
aF0.99897587299346924
aF0.99897587299346924
aF0.99897587299346924
aF0.99897587299346924
aF0.99897587299346924
aF0.99897587299346924
aF0.99897587299346924
aF0.99897587299346924
aF0.99897587299346924
aF0.99897587299346924
aF0.99897587299346924
aF0.99897587299346924
aF0.99897587299346924
aF0.99897587299346924
aF0.99897587299346924
aF0.99897587299346924
aF0.99897587299346924
asS'L1'
p71
(dp72
g63
(lp73
F20.0
aF20.0
aF20.0
aF20.0
aF20.0
aF20.0
aF20.0
aF20.0
aF20.0
aF20.0
aF20.0
aF20.0
aF20.0
aF20.0
aF20.0
aF20.0
aF20.0
aF20.0
aF20.0
aF20.0
aF20.0
asg65
(lp74
I0
aI0
aI0
aI0
aI0
aI0
aI0
aI0
aI0
aI0
aI0
aI0
aI0
aI0
aI0
aI0
aI0
aI0
aI0
aI0
aI0
asg67
(lp75
F0.0
aF0.0
aF0.0
aF0.0
aF0.0
aF0.0
aF0.0
aF0.0
aF0.0
aF0.0
aF0.0
aF0.0
aF0.0
aF0.0
aF0.0
aF0.0
aF0.0
aF0.0
aF0.0
aF0.0
aF0.0
assg48
I3
sg49
S'3'
p76
ssS'G021'
p77
(dp78
g27
(lp79
F-0.67385661602020264
aF-0.67385661602020264
aF-0.67385661602020264
aF-0.65315073728561401
aF-0.65315073728561401
aF-0.65315073728561401
aF-0.65315073728561401
aF-0.65315073728561401
aF-0.65315073728561401
aF-0.65315073728561401
aF-0.65315073728561401
aF-0.65315073728561401
aF-0.65315073728561401
aF-0.65315073728561401
aF-0.65315073728561401
aF-0.65315073728561401
aF-0.65315073728561401
aF-0.65315073728561401
aF-0.65315073728561401
aF-0.65315073728561401
aF-0.65315073728561401
asg29
(lp80
F1.0
aF1.0
aF1.0
aF1.0
aF1.0
aF1.0
aF1.0
aF1.0
aF1.0
aF1.0
aF1.0
aF1.0
aF1.0
aF1.0
aF1.0
aF1.0
aF1.0
aF1.0
aF1.0
aF1.0
aF1.0
asg48
I21
sS'G0'
p81
(dp82
S'Pe'
p83
(lp84
F50.0
aF50.0
aF40.0
aF49.999996185302734
aF50.0
aF50.0
aF50.0
aF50.0
aF50.0
aF50.0
aF50.0
aF50.0
aF50.0
aF50.0
aF50.0
aF50.0
aF50.0
aF50.0
aF50.0
aF50.0
aF50.0
asS'Hpu'
p85
F3.7000000000000002
sS'Slack'
p86
I0
sS'Mbase'
p87
F100.0
sS'St'
p88
(lp89
I1
aI1
aI1
aI1
aI1
aI1
aI1
aI1
aI1
aI1
aI1
aI1
aI1
aI1
aI1
aI1
aI1
aI1
aI1
aI1
aI1
asS'Pm'
p90
(lp91
F50.0
aF50.0
aF50.0
aF50.0
aF50.0
aF50.0
aF50.0
aF50.0
aF50.0
aF50.0
aF50.0
aF50.0
aF50.0
aF50.0
aF50.0
aF50.0
aF50.0
aF50.0
aF50.0
aF50.0
aF50.0
asS'Q'
p92
(lp93
F2.7583422660827637
aF2.7583422660827637
aF1.7633944749832153
aF2.281489372253418
aF2.2814438343048096
aF2.2814438343048096
aF2.2814438343048096
aF2.2814438343048096
aF2.2814438343048096
aF2.2814438343048096
aF2.2814438343048096
aF2.2814438343048096
aF2.2814438343048096
aF2.2814438343048096
aF2.2814438343048096
aF2.2814438343048096
aF2.2814438343048096
aF2.2814438343048096
aF2.2814438343048096
aF2.2814438343048096
aF2.2814438343048096
assg49
S'21'
p94
ssS'x001'
p95
(dp96
g29
(lp97
F0.99849432706832886
aF0.99849432706832886
aF0.99903768301010132
aF0.99899733066558838
aF0.99899733066558838
aF0.99899733066558838
aF0.99899733066558838
aF0.99899733066558838
aF0.99899733066558838
aF0.99899733066558838
aF0.99899733066558838
aF0.99899733066558838
aF0.99899733066558838
aF0.99899733066558838
aF0.99899733066558838
aF0.99899733066558838
aF0.99899733066558838
aF0.99899733066558838
aF0.99899733066558838
aF0.99899733066558838
aF0.99899733066558838
asg49
S'1'
p98
sg48
I1
sg27
(lp99
F-0.72395294904708862
aF-0.72395294904708862
aF-0.71390587091445923
aF-0.70389127731323242
aF-0.70389121770858765
aF-0.70389121770858765
aF-0.70389121770858765
aF-0.70389121770858765
aF-0.70389121770858765
aF-0.70389121770858765
aF-0.70389121770858765
aF-0.70389121770858765
aF-0.70389121770858765
aF-0.70389121770858765
aF-0.70389121770858765
aF-0.70389121770858765
aF-0.70389121770858765
aF-0.70389121770858765
aF-0.70389121770858765
aF-0.70389121770858765
aF-0.70389121770858765
asssS'N'
p100
I21
sS'meta'
p101
(dp102
S'created'
p103
S'2019/02/1 at 20:39:42'
p104
sS'fileName'
p105
S'noGovStepDEw'
p106
sS'notes'
p107
S'\n-20 MW load step at t=2\nsim time = 20 seconds, \nchanged slackTol to 0.25. Timestep = 1\n'
p108
sS'integrationMethod'
p109
S'Euler'
p110
sS'freqEffects'
p111
I1
sS'locations'
p112
(dp113
S'dydPath'
p114
(lp115
S'C:\\LTD\\pslf_systems\\eele554\\ee554.exc.dyd'
p116
asS'pslfPath'
p117
S'C:\\Program Files (x86)\\GE PSLF'
p118
sS'fullMiddlewareFilePath'
p119
S'C:\\Program Files (x86)\\GE PSLF\\PslfMiddleware'
p120
sS'savPath'
p121
S'C:\\LTD\\pslf_systems\\eele554\\ee554.sav'
p122
sss.
