(dp0
S'Vm'
p1
(lp2
F1.0768706798553467
aF1.0768706798553467
aF1.0768706798553467
aF1.0768706798553467
aF1.0768706798553467
aF1.0768706798553467
aF1.0768706798553467
aF1.0768706798553467
aF1.0768706798553467
aF1.0768706798553467
aF1.0768706798553467
aF1.0768706798553467
aF1.0768706798553467
aF1.0768706798553467
aF1.0768706798553467
aF1.0768706798553467
aF1.0768706798553467
aF1.0768706798553467
aF1.0768706798553467
aF1.0768706798553467
aF1.0768706798553467
asS'BusName'
p3
S'MNT-4'
p4
sS'BusNum'
p5
I4
sS'Va'
p6
(lp7
F0.34180375933647156
aF0.34180375933647156
aF0.34180375933647156
aF0.34180375933647156
aF0.34180375933647156
aF0.34180375933647156
aF0.34180375933647156
aF0.34180375933647156
aF0.34180375933647156
aF0.34180375933647156
aF0.34180375933647156
aF0.34180375933647156
aF0.34180375933647156
aF0.34180375933647156
aF0.34180375933647156
aF0.34180375933647156
aF0.34180375933647156
aF0.34180375933647156
aF0.34180375933647156
aF0.34180375933647156
aF0.34180375933647156
as.