ccopy_reg
_reconstructor
p0
(cModel
Model
p1
c__builtin__
object
p2
Ntp3
Rp4
(dp5
S'created'
p6
cdatetime
datetime
p7
(I2019
I1
I10
I1
I59
I30
I569000
Ntp8
Rp9
sS'locations'
p10
(S'C:\\Program Files (x86)\\GE PSLF\\PslfMiddleware'
p11
S'C:\\Program Files (x86)\\GE PSLF'
p12
S'C:\\LTD\\pslf_systems\\eele554\\ee554.sav'
p13
S'C:\\LTD\\pslf_systems\\eele554\\ee554.dyd'
p14
tp15
sS'timeStep'
p16
F1.0
sS'endTime'
p17
F20.0
sS'slackTol'
p18
F1.0
sS'Hinput'
p19
F0.0
sS'Dinput'
p20
F0.0
sS'debug'
p21
I1
sS'dataPoints'
p22
I21
sS'c_dp'
p23
I21
sS'c_t'
p24
F21.0
sS'c_f'
p25
F0.82432437071929077
sS'c_fdot'
p26
F0.0
sS'c_deltaF'
p27
F0.0
sS'ss_H'
p28
F740.0
sS'ss_Pe'
p29
F99.999996185302734
sS'ss_Pm'
p30
F100.00000762939453
sS'ss_Pacc'
p31
F7.62939453125e-06
sS'ss_Qgen'
p32
F0.0
sS'ss_Qload'
p33
F0.0
sS'ss_Pload'
p34
F100.0
sS'ss_Pert_Pdelta'
p35
F0.0
sS'ss_Pert_Qdelta'
p36
F0.0
sS'r_t'
p37
(lp38
F0.0
aF1.0
aF2.0
aF3.0
aF4.0
aF5.0
aF6.0
aF7.0
aF8.0
aF9.0
aF10.0
aF11.0
aF12.0
aF13.0
aF14.0
aF15.0
aF16.0
aF17.0
aF18.0
aF19.0
aF20.0
asS'r_f'
p39
(lp40
F1.0
aF1.0
aF1.0
aF0.98648648648648651
aF0.97297297555047113
aF0.95945946461445575
aF0.94594595367844037
aF0.93243244274242498
aF0.9189189318064096
aF0.90540542087039422
aF0.89189190993437883
aF0.87837839899836345
aF0.86486488806234807
aF0.85135137712633269
aF0.8378378661903173
aF0.82432435525430192
aF0.82432435783180003
aF0.82432436298679634
aF0.82432436298679634
aF0.82432437071929077
aF0.82432437071929077
asS'r_deltaF'
p41
(lp42
F0.0
aF0.0
aF0.0
aF-0.013513513513513487
aF-0.013513510936015383
aF-0.013513510936015383
aF-0.013513510936015383
aF-0.013513510936015383
aF-0.013513510936015383
aF-0.013513510936015383
aF-0.013513510936015383
aF-0.013513510936015383
aF-0.013513510936015383
aF-0.013513510936015383
aF-0.013513510936015383
aF-0.013513510936015383
aF2.5774981038395595e-09
aF5.1549963187014214e-09
aF0.0
aF7.7324944225409808e-09
aF0.0
asS'r_fdot'
p43
(lp44
F0.0
aF0.0
aF0.0
aF-0.013513513513513513
aF-0.01351351093601536
aF-0.01351351093601536
aF-0.01351351093601536
aF-0.01351351093601536
aF-0.01351351093601536
aF-0.01351351093601536
aF-0.01351351093601536
aF-0.01351351093601536
aF-0.01351351093601536
aF-0.01351351093601536
aF-0.01351351093601536
aF-0.01351351093601536
aF2.5774981524493241e-09
aF5.1549963048986481e-09
aF0.0
aF7.7324944573479717e-09
aF0.0
asS'r_ss_Pe'
p45
(lp46
F100.00000762939453
aF100.00000762939453
aF120.00000381469727
aF120.00000381469727
aF120.00000381469727
aF120.00000381469727
aF120.00000381469727
aF120.00000381469727
aF120.00000381469727
aF120.00000381469727
aF120.00000381469727
aF120.00000381469727
aF120.00000381469727
aF120.00000381469727
aF120.00000381469727
aF100.0
aF100.00000762939453
aF99.999996185302734
aF100.00000762939453
aF100.0
aF99.999996185302734
asS'r_ss_Pm'
p47
(lp48
F100.00000762939453
aF100.00000762939453
aF100.00000762939453
aF100.00000762939453
aF100.00000762939453
aF100.00000762939453
aF100.00000762939453
aF100.00000762939453
aF100.00000762939453
aF100.00000762939453
aF100.00000762939453
aF100.00000762939453
aF100.00000762939453
aF100.00000762939453
aF100.00000762939453
aF100.00000762939453
aF100.00000762939453
aF100.00000762939453
aF100.00000762939453
aF100.00000762939453
aF100.00000762939453
asS'r_ss_Pacc'
p49
(lp50
F0.0
aF0.0
aF-20.0
aF-19.999996185302734
aF-19.999996185302734
aF-19.999996185302734
aF-19.999996185302734
aF-19.999996185302734
aF-19.999996185302734
aF-19.999996185302734
aF-19.999996185302734
aF-19.999996185302734
aF-19.999996185302734
aF-19.999996185302734
aF-19.999996185302734
aF3.814697265625e-06
aF7.62939453125e-06
aF0.0
aF1.1444091796875e-05
aF0.0
aF7.62939453125e-06
asS'r_Pacc_delta'
p51
(lp52
F0.0
aF0.0
aF-20.0
aF3.814697265625e-06
aF0.0
aF0.0
aF0.0
aF0.0
aF0.0
aF0.0
aF0.0
aF0.0
aF0.0
aF0.0
aF0.0
aF20.0
aF3.814697265625e-06
aF-7.62939453125e-06
aF1.1444091796875e-05
aF-1.1444091796875e-05
aF7.62939453125e-06
asS'r_ss_Qgen'
p53
(lp54
F0.0
aF0.0
aF0.0
aF0.0
aF0.0
aF0.0
aF0.0
aF0.0
aF0.0
aF0.0
aF0.0
aF0.0
aF0.0
aF0.0
aF0.0
aF0.0
aF0.0
aF0.0
aF0.0
aF0.0
aF0.0
asS'r_ss_Qload'
p55
(lp56
F0.0
aF0.0
aF0.0
aF0.0
aF0.0
aF0.0
aF0.0
aF0.0
aF0.0
aF0.0
aF0.0
aF0.0
aF0.0
aF0.0
aF0.0
aF0.0
aF0.0
aF0.0
aF0.0
aF0.0
aF0.0
asS'r_ss_Pload'
p57
(lp58
F100.0
aF100.0
aF120.0
aF120.0
aF120.0
aF120.0
aF120.0
aF120.0
aF120.0
aF120.0
aF120.0
aF120.0
aF120.0
aF120.0
aF120.0
aF100.0
aF100.0
aF100.0
aF100.0
aF100.0
aF100.0
asS'PLosses'
p59
F0.0
sS'QLosses'
p60
F0.0
sS'r_PLosses'
p61
(lp62
F0.0
aF0.0
aF0.0
aF0.0
aF0.0
aF0.0
aF0.0
aF0.0
aF0.0
aF0.0
aF0.0
aF0.0
aF0.0
aF0.0
aF0.0
aF0.0
aF0.0
aF0.0
aF0.0
aF0.0
aF0.0
asS'r_QLosses'
p63
(lp64
F0.0
aF0.0
aF0.0
aF0.0
aF0.0
aF0.0
aF0.0
aF0.0
aF0.0
aF0.0
aF0.0
aF0.0
aF0.0
aF0.0
aF0.0
aF0.0
aF0.0
aF0.0
aF0.0
aF0.0
aF0.0
asS'Ngen'
p65
I2
sS'Nbus'
p66
I5
sS'Nload'
p67
I2
sS'Narea'
p68
I1
sS'Nzone'
p69
I1
sS'Nbrsec'
p70
I3
sS'Sbase'
p71
F100.0
sS'Area'
p72
(lp73
g0
(cCoreAgents
AreaAgent
p74
g2
Ntp75
Rp76
(dp77
S'model'
p78
g4
sg72
I1
sg65
I2
sg67
I2
sS'Gens'
p79
(lp80
g0
(cCoreAgents
GeneratorAgent
p81
g2
Ntp82
Rp83
(dp84
g78
g4
sS'Bus'
p85
g0
(cCoreAgents
BusAgent
p86
g2
Ntp87
Rp88
(dp89
g78
g4
sg72
I1
sS'Busnam'
p90
S'21'
p91
sS'Extnum'
p92
I21
sS'Scanbus'
p93
I4
sS'Type'
p94
I2
sg67
I0
sg65
I1
sg79
(lp95
g83
asS'Slack'
p96
(lp97
sS'Load'
p98
(lp99
sS'Shunt'
p100
(lp101
sS'SVD'
p102
(lp103
sS'Vm'
p104
F1.0
sS'Va'
p105
F-0.67385661602020264
sS'r_Vm'
p106
(lp107
F1.0
aF1.0
aF1.0
aF1.0
aF1.0
aF1.0
aF1.0
aF1.0
aF1.0
aF1.0
aF1.0
aF1.0
aF1.0
aF1.0
aF1.0
aF1.0
aF1.0
aF1.0
aF1.0
aF1.0
aF1.0
asS'r_Va'
p108
(lp109
F-0.67385661602020264
aF-0.67385661602020264
aF-0.67385661602020264
aF-0.67385661602020264
aF-0.67385661602020264
aF-0.67385661602020264
aF-0.67385661602020264
aF-0.67385661602020264
aF-0.67385661602020264
aF-0.67385661602020264
aF-0.67385661602020264
aF-0.67385661602020264
aF-0.67385661602020264
aF-0.67385661602020264
aF-0.67385661602020264
aF-0.67385661602020264
aF-0.67385661602020264
aF-0.67385661602020264
aF-0.67385661602020264
aF-0.67385661602020264
aF-0.67385661602020264
asbsS'Id'
p110
S'1'
p111
sS'Lid'
p112
S''
p113
sg72
I1
sS'Zone'
p114
I1
sg90
S'21'
p115
sS'Busnum'
p116
I21
sg93
I4
sS'St'
p117
I1
sS'MbaseSAV'
p118
F100.0
sS'MbaseDYD'
p119
F100.0
sS'H'
p120
F370.0
sS'Hpu'
p121
F3.7000000000000002
sS'IRP_flag'
p122
I1
sS'Pm'
p123
F50.0
sS'Pe'
p124
F50.000003814697266
sS'Q'
p125
F2.7583456039428711
sS'r_Pm'
p126
(lp127
F50.0
aF50.0
aF50.0
aF50.0
aF50.0
aF50.0
aF50.0
aF50.0
aF50.0
aF50.0
aF50.0
aF50.0
aF50.0
aF50.0
aF50.0
aF50.0
aF50.0
aF50.0
aF50.0
aF50.0
aF50.0
asS'r_Pe'
p128
(lp129
F50.0
aF50.0
aF60.0
aF60.0
aF60.0
aF60.0
aF60.0
aF60.0
aF60.0
aF60.0
aF60.0
aF60.0
aF60.0
aF60.0
aF60.0
aF50.0
aF50.0
aF50.000003814697266
aF50.0
aF50.000007629394531
aF50.000003814697266
asS'r_Q'
p130
(lp131
F2.7583422660827637
aF2.7583422660827637
aF3.9773690700531006
aF3.9774239063262939
aF3.9774239063262939
aF3.9774239063262939
aF3.9774239063262939
aF3.9774239063262939
aF3.9774239063262939
aF3.9774239063262939
aF3.9774239063262939
aF3.9774239063262939
aF3.9774239063262939
aF3.9774239063262939
aF3.9774239063262939
aF2.7583756446838379
aF2.7583422660827637
aF2.7583456039428711
aF2.7583422660827637
aF2.7583456039428711
aF2.7583456039428711
asS'r_St'
p132
(lp133
I1
aI1
aI1
aI1
aI1
aI1
aI1
aI1
aI1
aI1
aI1
aI1
aI1
aI1
aI1
aI1
aI1
aI1
aI1
aI1
aI1
asS'machine_model'
p134
(lp135
(iPSLF_model_templates
genrou
p136
(dp137
S'dydLine'
p138
(lp139
S'genrou'
p140
aI21
aS'21'
p141
aF22.0
aS'1'
p142
aS'#9'
p143
aS'mva=100.00'
p144
aF6.5
aF0.079000000000000001
aF0.53000000000000003
aF0.071999999999999995
aF3.7000000000000002
aF0.0
aF1.24
aF1.22
aF0.23000000000000001
aF0.35999999999999999
aF0.17000000000000001
aF0.14000000000000001
aF0.17299999999999999
aF0.44700000000000001
aF0.0030000000000000001
aF0.0
aF0.0
aF1.0
asg94
g140
sg116
I21
sg90
g141
sS'Base_kV'
p145
F22.0
sg114
g142
sS'Rlevel'
p146
g143
sS'Mbase'
p147
F100.0
sS'Tpdo'
p148
F6.5
sS'Tppdo'
p149
F0.079000000000000001
sS'Tpdq'
p150
F0.53000000000000003
sS'Tppqo'
p151
F0.071999999999999995
sg120
F3.7000000000000002
sS'D'
p152
F0.0
sS'Ld'
p153
F1.24
sS'Lq'
p154
F1.22
sS'Lpd'
p155
F0.23000000000000001
sS'Lpq'
p156
F0.35999999999999999
sS'Lppd'
p157
F0.17000000000000001
sS'Ll'
p158
F0.14000000000000001
sS'S1'
p159
F0.17299999999999999
sS'S12'
p160
F0.44700000000000001
sS'Ra'
p161
F0.0030000000000000001
sS'Rcomp'
p162
F0.0
sS'Xcomp'
p163
F0.0
sS'Accel'
p164
F1.0
sbasS'gov'
p165
NsS'exc'
p166
Nsbasg98
(lp167
g0
(cCoreAgents
LoadAgent
p168
g2
Ntp169
Rp170
(dp171
g78
g4
sg85
g0
(g86
g2
Ntp172
Rp173
(dp174
g78
g4
sg72
I1
sg90
S'3'
p175
sg92
I3
sg93
I2
sg94
I1
sg67
I2
sg65
I0
sg79
(lp176
sg96
(lp177
sg98
(lp178
g170
ag0
(g168
g2
Ntp179
Rp180
(dp181
g78
g4
sg85
g173
sg110
S'2'
p182
sg72
I1
sg114
I1
sS'P'
p183
F20.0
sg125
F0.0
sg117
I0
sS'r_P'
p184
(lp185
F20.0
aF20.0
aF20.0
aF20.0
aF20.0
aF20.0
aF20.0
aF20.0
aF20.0
aF20.0
aF20.0
aF20.0
aF20.0
aF20.0
aF20.0
aF20.0
aF20.0
aF20.0
aF20.0
aF20.0
aF20.0
asg130
(lp186
F0.0
aF0.0
aF0.0
aF0.0
aF0.0
aF0.0
aF0.0
aF0.0
aF0.0
aF0.0
aF0.0
aF0.0
aF0.0
aF0.0
aF0.0
aF0.0
aF0.0
aF0.0
aF0.0
aF0.0
aF0.0
asg132
(lp187
I0
aI0
aI1
aI1
aI1
aI1
aI1
aI1
aI1
aI1
aI1
aI1
aI1
aI1
aI1
aI0
aI0
aI0
aI0
aI0
aI0
asbasg100
(lp188
sg102
(lp189
sg104
F0.99848175048828125
sg105
F-0.72896814346313477
sg106
(lp190
F0.99848175048828125
aF0.99848175048828125
aF0.9978100061416626
aF0.9978100061416626
aF0.9978100061416626
aF0.9978100061416626
aF0.9978100061416626
aF0.9978100061416626
aF0.9978100061416626
aF0.9978100061416626
aF0.9978100061416626
aF0.9978100061416626
aF0.9978100061416626
aF0.9978100061416626
aF0.9978100061416626
aF0.99848175048828125
aF0.99848175048828125
aF0.99848175048828125
aF0.99848175048828125
aF0.99848175048828125
aF0.99848175048828125
asg108
(lp191
F-0.72896814346313477
aF-0.72896814346313477
aF-0.74004977941513062
aF-0.74004977941513062
aF-0.74004977941513062
aF-0.74004977941513062
aF-0.74004977941513062
aF-0.74004977941513062
aF-0.74004977941513062
aF-0.74004977941513062
aF-0.74004977941513062
aF-0.74004977941513062
aF-0.74004977941513062
aF-0.74004977941513062
aF-0.74004977941513062
aF-0.72896814346313477
aF-0.72896814346313477
aF-0.72896814346313477
aF-0.72896814346313477
aF-0.72896814346313477
aF-0.72896814346313477
asbsg110
S'1'
p192
sg72
I1
sg114
I1
sg183
F100.0
sg125
F0.0
sg117
I1
sg184
(lp193
F100.0
aF100.0
aF100.0
aF100.0
aF100.0
aF100.0
aF100.0
aF100.0
aF100.0
aF100.0
aF100.0
aF100.0
aF100.0
aF100.0
aF100.0
aF100.0
aF100.0
aF100.0
aF100.0
aF100.0
aF100.0
asg130
(lp194
F0.0
aF0.0
aF0.0
aF0.0
aF0.0
aF0.0
aF0.0
aF0.0
aF0.0
aF0.0
aF0.0
aF0.0
aF0.0
aF0.0
aF0.0
aF0.0
aF0.0
aF0.0
aF0.0
aF0.0
aF0.0
asg132
(lp195
I1
aI1
aI1
aI1
aI1
aI1
aI1
aI1
aI1
aI1
aI1
aI1
aI1
aI1
aI1
aI1
aI1
aI1
aI1
aI1
aI1
asbag180
asg96
(lp196
g0
(cCoreAgents
SlackAgent
p197
g2
Ntp198
Rp199
(dp200
g78
g4
sg85
g0
(g86
g2
Ntp201
Rp202
(dp203
g78
g4
sg72
I1
sg90
S'11'
p204
sg92
I11
sg93
I3
sg94
I0
sg67
I0
sg65
I1
sg79
(lp205
sg96
(lp206
g199
asg98
(lp207
sg100
(lp208
sg102
(lp209
sg104
F1.0
sg105
F-0.67385661602020264
sg106
(lp210
F1.0
aF1.0
aF1.0
aF1.0
aF1.0
aF1.0
aF1.0
aF1.0
aF1.0
aF1.0
aF1.0
aF1.0
aF1.0
aF1.0
aF1.0
aF1.0
aF1.0
aF1.0
aF1.0
aF1.0
aF1.0
asg108
(lp211
F-0.67385661602020264
aF-0.67385661602020264
aF-0.67385661602020264
aF-0.67385661602020264
aF-0.67385661602020264
aF-0.67385661602020264
aF-0.67385661602020264
aF-0.67385661602020264
aF-0.67385661602020264
aF-0.67385661602020264
aF-0.67385661602020264
aF-0.67385661602020264
aF-0.67385661602020264
aF-0.67385661602020264
aF-0.67385661602020264
aF-0.67385661602020264
aF-0.67385661602020264
aF-0.67385661602020264
aF-0.67385661602020264
aF-0.67385661602020264
aF-0.67385661602020264
asbsg110
S'1'
p212
sg112
g113
sg72
I1
sg114
I1
sg90
S'11'
p213
sg116
I11
sg93
I3
sg117
I1
sg118
F100.0
sg119
F100.0
sg120
F370.0
sg121
F3.7000000000000002
sg122
I1
sg123
F50.000007629394531
sg124
F49.999992370605469
sg125
F2.7583456039428711
sg126
(lp214
F50.000007629394531
aF50.000007629394531
aF50.000007629394531
aF50.000007629394531
aF50.000007629394531
aF50.000007629394531
aF50.000007629394531
aF50.000007629394531
aF50.000007629394531
aF50.000007629394531
aF50.000007629394531
aF50.000007629394531
aF50.000007629394531
aF50.000007629394531
aF50.000007629394531
aF50.000007629394531
aF50.000007629394531
aF50.000007629394531
aF50.000007629394531
aF50.000007629394531
aF50.000007629394531
asg128
(lp215
F50.000007629394531
aF50.000007629394531
aF60.000003814697266
aF60.000003814697266
aF60.000003814697266
aF60.000003814697266
aF60.000003814697266
aF60.000003814697266
aF60.000003814697266
aF60.000003814697266
aF60.000003814697266
aF60.000003814697266
aF60.000003814697266
aF60.000003814697266
aF60.000003814697266
aF50.0
aF50.000007629394531
aF49.999992370605469
aF50.000007629394531
aF49.999992370605469
aF49.999992370605469
asg130
(lp216
F2.7583422660827637
aF2.7583422660827637
aF3.9773690700531006
aF3.9774239063262939
aF3.9774239063262939
aF3.9774239063262939
aF3.9774239063262939
aF3.9774239063262939
aF3.9774239063262939
aF3.9774239063262939
aF3.9774239063262939
aF3.9774239063262939
aF3.9774239063262939
aF3.9774239063262939
aF3.9774239063262939
aF2.7583756446838379
aF2.7583422660827637
aF2.7583456039428711
aF2.7583422660827637
aF2.7583456039428711
aF2.7583456039428711
asg132
(lp217
I1
aI1
aI1
aI1
aI1
aI1
aI1
aI1
aI1
aI1
aI1
aI1
aI1
aI1
aI1
aI1
aI1
aI1
aI1
aI1
aI1
asg134
(lp218
(iPSLF_model_templates
genrou
p219
(dp220
g138
(lp221
S'genrou'
p222
aI11
aS'11'
p223
aF22.0
aS'1'
p224
aS'#9'
p225
aS'mva=100.00'
p226
aF6.5
aF0.079000000000000001
aF0.53000000000000003
aF0.071999999999999995
aF3.7000000000000002
aF0.0
aF1.24
aF1.22
aF0.23000000000000001
aF0.35999999999999999
aF0.17000000000000001
aF0.14000000000000001
aF0.17299999999999999
aF0.44700000000000001
aF0.0030000000000000001
aF0.0
aF0.0
aF1.0
asg94
g222
sg116
I11
sg90
g223
sg145
F22.0
sg114
g224
sg146
g225
sg147
F100.0
sg148
F6.5
sg149
F0.079000000000000001
sg150
F0.53000000000000003
sg151
F0.071999999999999995
sg120
F3.7000000000000002
sg152
F0.0
sg153
F1.24
sg154
F1.22
sg155
F0.23000000000000001
sg156
F0.35999999999999999
sg157
F0.17000000000000001
sg158
F0.14000000000000001
sg159
F0.17299999999999999
sg160
F0.44700000000000001
sg161
F0.0030000000000000001
sg162
F0.0
sg163
F0.0
sg164
F1.0
sbasg165
Nsg166
NsS'globalSlack'
p227
I1
sS'Tol'
p228
F1.0
sS'Pe_calc'
p229
F49.999988555908203
sS'Pe_error'
p230
F3.814697265625e-06
sS'r_Pe_calc'
p231
(lp232
F50.000007629394531
aF50.000007629394531
aF60.000007629394531
aF60.000001907348633
aF60.000003814697266
aF60.000003814697266
aF60.000003814697266
aF60.000003814697266
aF60.000003814697266
aF60.000003814697266
aF60.000003814697266
aF60.000003814697266
aF60.000003814697266
aF60.000003814697266
aF60.000003814697266
aF50.000003814697266
aF49.999998092651367
aF50.000011444091797
aF49.99998664855957
aF50.00001335144043
aF49.999988555908203
asS'r_Pe_error'
p233
(lp234
F0.0
aF0.0
aF-3.814697265625e-06
aF1.9073486328125e-06
aF0.0
aF0.0
aF0.0
aF0.0
aF0.0
aF0.0
aF0.0
aF0.0
aF0.0
aF0.0
aF0.0
aF-3.814697265625e-06
aF9.5367431640625e-06
aF-1.9073486328125e-05
aF2.09808349609375e-05
aF-2.09808349609375e-05
aF3.814697265625e-06
asbasS'Machines'
p235
(lp236
g199
ag83
asg100
(lp237
sg102
(lp238
sbasg85
(lp239
g0
(g86
g2
Ntp240
Rp241
(dp242
g78
g4
sg72
I1
sg90
S'1'
p243
sg92
I1
sg93
I0
sg94
I1
sg67
I0
sg65
I0
sg79
(lp244
sg96
(lp245
sg98
(lp246
sg100
(lp247
sg102
(lp248
sg104
F0.99849432706832886
sg105
F-0.72395294904708862
sg106
(lp249
F0.99849432706832886
aF0.99849432706832886
aF0.99782818555831909
aF0.99782812595367432
aF0.99782812595367432
aF0.99782812595367432
aF0.99782812595367432
aF0.99782812595367432
aF0.99782812595367432
aF0.99782812595367432
aF0.99782812595367432
aF0.99782812595367432
aF0.99782812595367432
aF0.99782812595367432
aF0.99782812595367432
aF0.99849426746368408
aF0.99849432706832886
aF0.99849432706832886
aF0.99849432706832886
aF0.99849432706832886
aF0.99849432706832886
asg108
(lp250
F-0.72395294904708862
aF-0.72395294904708862
aF-0.73402351140975952
aF-0.73402351140975952
aF-0.73402351140975952
aF-0.73402351140975952
aF-0.73402351140975952
aF-0.73402351140975952
aF-0.73402351140975952
aF-0.73402351140975952
aF-0.73402351140975952
aF-0.73402351140975952
aF-0.73402351140975952
aF-0.73402351140975952
aF-0.73402351140975952
aF-0.72395294904708862
aF-0.72395294904708862
aF-0.72395294904708862
aF-0.72395294904708862
aF-0.72395294904708862
aF-0.72395294904708862
asbag0
(g86
g2
Ntp251
Rp252
(dp253
g78
g4
sg72
I1
sg90
S'2'
p254
sg92
I2
sg93
I1
sg94
I1
sg67
I0
sg65
I0
sg79
(lp255
sg96
(lp256
sg98
(lp257
sg100
(lp258
sg102
(lp259
sg104
F0.99849432706832886
sg105
F-0.72395294904708862
sg106
(lp260
F0.99849432706832886
aF0.99849432706832886
aF0.99782818555831909
aF0.99782812595367432
aF0.99782812595367432
aF0.99782812595367432
aF0.99782812595367432
aF0.99782812595367432
aF0.99782812595367432
aF0.99782812595367432
aF0.99782812595367432
aF0.99782812595367432
aF0.99782812595367432
aF0.99782812595367432
aF0.99782812595367432
aF0.99849426746368408
aF0.99849432706832886
aF0.99849432706832886
aF0.99849432706832886
aF0.99849432706832886
aF0.99849432706832886
asg108
(lp261
F-0.72395294904708862
aF-0.72395294904708862
aF-0.73402351140975952
aF-0.73402351140975952
aF-0.73402351140975952
aF-0.73402351140975952
aF-0.73402351140975952
aF-0.73402351140975952
aF-0.73402351140975952
aF-0.73402351140975952
aF-0.73402351140975952
aF-0.73402351140975952
aF-0.73402351140975952
aF-0.73402351140975952
aF-0.73402351140975952
aF-0.72395294904708862
aF-0.72395294904708862
aF-0.72395294904708862
aF-0.72395294904708862
aF-0.72395294904708862
aF-0.72395294904708862
asbag173
ag202
ag88
asg79
(lp262
g83
asg98
(lp263
g170
ag180
asg96
(lp264
g199
asS'Perturbance'
p265
(lp266
g0
(cPerturbanceAgents
LoadStepAgent
p267
g2
Ntp268
Rp269
(dp270
S'ProcessFlag'
p271
I0
sg78
g4
sS'mObj'
p272
g180
sS'attr'
p273
S'St'
p274
sS'tStart'
p275
I2
sS'newVal'
p276
I1
sbag0
(g267
g2
Ntp277
Rp278
(dp279
g271
I0
sg78
g4
sg272
g180
sg273
S'St'
p280
sg275
I15
sg276
I0
sbasg235
(lp281
g199
ag83
asS'Log'
p282
(lp283
g4
ag170
ag180
ag241
ag252
ag173
ag202
ag88
ag199
ag83
asS'PSLFmach'
p284
(lp285
g219
ag136
asS'PSLFgov'
p286
(lp287
sS'PSLFexc'
p288
(lp289
sS'Hsys'
p290
F740.0
sS'pslf'
p291
Nsb.