(dp0
S'Pe'
p1
(lp2
F3000.0
aF3000.0
aF3000.0
aF3000.0
aF3000.0
aF3000.0
aF3000.0
aF3000.0
aF3000.0
aF3000.0
aF3000.0
aF3000.0
aF3000.0
aF3000.0
aF3000.0
aF3000.0
aF3000.0
aF3000.0
aF3000.0
aF3000.0
aF3000.0
asS'Hpu'
p3
F5.0
sS'Slack'
p4
I0
sS'Mbase'
p5
F6000.0
sS'St'
p6
(lp7
I1
aI1
aI1
aI1
aI1
aI1
aI1
aI1
aI1
aI1
aI1
aI1
aI1
aI1
aI1
aI1
aI1
aI1
aI1
aI1
aI1
asS'Pm'
p8
(lp9
F3000.0
aF3000.0
aF3000.0
aF3000.0
aF3000.0
aF3000.0
aF3000.0
aF3000.0
aF3000.0
aF3000.0
aF3000.0
aF3000.0
aF3000.0
aF3000.0
aF3000.0
aF3000.0
aF3000.0
aF3000.0
aF3000.0
aF3000.0
aF3000.0
asS'Q'
p10
(lp11
F-77.651153564453125
aF-77.651153564453125
aF-77.651153564453125
aF-77.651153564453125
aF-77.651153564453125
aF-77.651153564453125
aF-77.651153564453125
aF-77.651153564453125
aF-77.651153564453125
aF-77.651153564453125
aF-77.651153564453125
aF-77.651153564453125
aF-77.651153564453125
aF-77.651153564453125
aF-77.651153564453125
aF-77.651153564453125
aF-77.651153564453125
aF-77.651153564453125
aF-77.651153564453125
aF-77.651153564453125
aF-77.651153564453125
as.