(dp0
S'P'
p1
(lp2
F3600.0
aF3600.0
aF3600.0
aF3600.0
aF3600.0
aF3600.0
aF3600.0
aF3600.0
aF3600.0
aF3600.0
aF3600.0
aF3600.0
aF3600.0
aF3600.0
aF3600.0
aF3600.0
aF3600.0
aF0.0
aF0.0
aF0.0
aF0.0
asS'St'
p3
(lp4
I1
aI1
aI1
aI1
aI1
aI1
aI1
aI1
aI1
aI1
aI1
aI1
aI1
aI1
aI1
aI1
aI1
aF0.0
aF0.0
aF0.0
aF0.0
asS'Q'
p5
(lp6
F900.0
aF900.0
aF900.0
aF900.0
aF900.0
aF900.0
aF900.0
aF900.0
aF900.0
aF900.0
aF900.0
aF900.0
aF900.0
aF900.0
aF900.0
aF900.0
aF900.0
aF0.0
aF0.0
aF0.0
aF0.0
as.