(dp0
S'P'
p1
(lp2
F3500.0
aF3500.0
aF3500.0
aF3500.0
aF3500.0
aF3500.0
aF3500.0
aF3500.0
aF3500.0
aF3500.0
aF3500.0
aF3500.0
aF3500.0
aF3500.0
aF3500.0
aF3500.0
aF3500.0
aF3500.0
aF3500.0
aF3500.0
aF3500.0
asS'St'
p3
(lp4
I1
aI1
aI1
aI1
aI1
aI1
aI1
aI1
aI1
aI1
aI1
aI1
aI1
aI1
aI1
aI1
aI1
aI1
aI1
aI1
aI1
asS'Q'
p5
(lp6
F875.0
aF875.0
aF875.0
aF875.0
aF875.0
aF875.0
aF875.0
aF875.0
aF875.0
aF875.0
aF875.0
aF875.0
aF875.0
aF875.0
aF875.0
aF875.0
aF875.0
aF875.0
aF875.0
aF875.0
aF875.0
as.