(dp0
S'N'
p1
I21
sS'Pload'
p2
(lp3
F45500.0
aF45500.0
aF45500.0
aF45500.0
aF45500.0
aF45500.0
aF45500.0
aF45500.0
aF45500.0
aF45500.0
aF45500.0
aF45500.0
aF45500.0
aF45500.0
aF45500.0
aF45500.0
aF45500.0
aF45500.0
aF45500.0
aF45500.0
aF45500.0
asS'Pe'
p4
(lp5
F46306.297729492188
aF46306.297729492188
aF46306.297729492188
aF46306.297729492188
aF46306.297729492188
aF46306.297729492188
aF46306.297729492188
aF46306.297729492188
aF46306.297729492188
aF46306.297729492188
aF46306.297729492188
aF46306.297729492188
aF46306.297729492188
aF46306.297729492188
aF46306.297729492188
aF46306.297729492188
aF46306.297729492188
aF46306.297729492188
aF46306.297729492188
aF46306.297729492188
aF46306.297729492188
asS'Sbase'
p6
F100.0
sS'Pacc'
p7
(lp8
F0.0
aF0.0
aF0.0
aF0.0
aF0.0
aF0.0
aF0.0
aF0.0
aF0.0
aF0.0
aF0.0
aF0.0
aF0.0
aF0.0
aF0.0
aF0.0
aF0.0
aF0.0
aF0.0
aF0.0
aF0.0
asS'fdot'
p9
(lp10
F0.0
aF0.0
aF0.0
aF0.0
aF0.0
aF0.0
aF0.0
aF0.0
aF0.0
aF0.0
aF0.0
aF0.0
aF0.0
aF0.0
aF0.0
aF0.0
aF0.0
aF0.0
aF0.0
aF0.0
aF0.0
asS'Pm'
p11
(lp12
F46306.297729492188
aF46306.297729492188
aF46306.297729492188
aF46306.297729492188
aF46306.297729492188
aF46306.297729492188
aF46306.297729492188
aF46306.297729492188
aF46306.297729492188
aF46306.297729492188
aF46306.297729492188
aF46306.297729492188
aF46306.297729492188
aF46306.297729492188
aF46306.297729492188
aF46306.297729492188
aF46306.297729492188
aF46306.297729492188
aF46306.297729492188
aF46306.297729492188
aF46306.297729492188
asS'Qload'
p13
(lp14
F11375.0
aF11375.0
aF11375.0
aF11375.0
aF11375.0
aF11375.0
aF11375.0
aF11375.0
aF11375.0
aF11375.0
aF11375.0
aF11375.0
aF11375.0
aF11375.0
aF11375.0
aF11375.0
aF11375.0
aF11375.0
aF11375.0
aF11375.0
aF11375.0
asS'Hsys'
p15
F618800.0
sS't'
p16
(lp17
F0.0
aF1.0
aF2.0
aF3.0
aF4.0
aF5.0
aF6.0
aF7.0
aF8.0
aF9.0
aF10.0
aF11.0
aF12.0
aF13.0
aF14.0
aF15.0
aF16.0
aF17.0
aF18.0
aF19.0
aF20.0
asS'Qgen'
p18
(lp19
F0.0
aF0.0
aF0.0
aF0.0
aF0.0
aF0.0
aF0.0
aF0.0
aF0.0
aF0.0
aF0.0
aF0.0
aF0.0
aF0.0
aF0.0
aF0.0
aF0.0
aF0.0
aF0.0
aF0.0
aF0.0
asS'f'
p20
(lp21
F1.0
aF1.0
aF1.0
aF1.0
aF1.0
aF1.0
aF1.0
aF1.0
aF1.0
aF1.0
aF1.0
aF1.0
aF1.0
aF1.0
aF1.0
aF1.0
aF1.0
aF1.0
aF1.0
aF1.0
aF1.0
asS'deltaF'
p22
(lp23
F0.0
aF0.0
aF0.0
aF0.0
aF0.0
aF0.0
aF0.0
aF0.0
aF0.0
aF0.0
aF0.0
aF0.0
aF0.0
aF0.0
aF0.0
aF0.0
aF0.0
aF0.0
aF0.0
aF0.0
aF0.0
as.