ccopy_reg
_reconstructor
p1
(cpsltdsim.mirror.Mirror
Mirror
p2
c__builtin__
object
p3
Ntp4
Rp0
(dp5
Vcreated
p6
cdatetime
datetime
p8
(I2019
I6
I29
I19
I31
I47
I687000
Ntp9
Rp7
sVsimNotes
p10
V\u000aStep of load up 10%, system H reduced by 15% \u000a
p11
sVsearchDict
p12
(dp13
V6
p14
(dp15
VBus
p16
g1
(cpsltdsim.systemAgents.BusAgent
BusAgent
p18
g3
Ntp19
Rp17
(dp20
Vmirror
p21
g0
sVArea
p22
I1
sVBusnam
p23
V6
p24
sVExtnum
p25
I6
sVScanbus
p26
I0
sVType
p27
I1
sVNload
p28
I0
sVNgen
p29
I0
sVNshunt
p30
I0
sVGens
p31
(lp32
sVSlack
p33
(lp34
sVLoad
p35
(lp36
sVShunt
p37
(lp38
sVSVD
p39
(lp40
sVTimer
p41
(dp42
sVcv
p43
(dp44
VVm
p45
F0.95738768577575684
sVVa
p46
F-0.27640971541404724
ssVBasekv
p47
F138.0
sVVsched
p48
F1.0000009999999999
sbssV5
p49
(dp50
VMachines
p51
(lp52
g1
(cpsltdsim.systemAgents.GeneratorAgent
GeneratorAgent
p54
g3
Ntp55
Rp53
(dp56
Vmirror
p57
g0
sVBus
p58
g1
(g18
g3
Ntp60
Rp59
(dp61
g21
g0
sg22
I2
sg23
V5
p62
sg25
I5
sg26
I10
sg27
I2
sg28
I0
sg29
I1
sg30
I0
sg31
(lp63
g53
asg33
(lp64
sg35
(lp65
sg37
(lp66
sg39
(lp67
sg41
(dp68
sg43
(dp69
g45
F1.0
sg46
F-0.037912886589765549
ssg47
F22.0
sg48
F1.0
sbsVId
p70
V1
p71
sVLid
p72
V
p73
sVArea
p74
I2
sVZone
p75
I1
sVBusnam
p76
V5
p77
sVBusnum
p78
I5
sVScanbus
p79
I10
sVglobalSlack
p80
I00
sVareaSlack
p81
I00
sVdistType
p82
NsVACEpFactor
p83
NsVMbase
p84
F900.0
sVH
p85
F3600.0
sVHpu
p86
F4.0
sVPmax
p87
F1000.0
sVQmax
p88
F9900.0
sVVsched
p89
F0.0
sVcv
p90
(dp91
VP0
p92
F230.0
sVIRPflag
p93
I00
sVPref
p94
F230.0
sVSCE
p95
F0.0
sVQ
p96
F69.830482000000003
sVSt
p97
I1
sVPm
p98
F230.0
sVPe
p99
F230.0
ssVmachine_model
p100
g1
(cpsltdsim.pslfModels.genrou
genrou
p102
g3
Ntp103
Rp101
(dp104
VdydLine
p105
(lp106
Vgenrou
p107
aI5
aV5
p108
aF22.0
aV1
p109
aV#9
p110
aVmva=900.00
p111
aF6.5
aF0.079000000000000001
aF0.53000000000000003
aF0.071999999999999995
aF4.0
aF0.0
aF1.24
aF1.22
aF0.23000000000000001
aF0.35999999999999999
aF0.17000000000000001
aF0.14000000000000001
aF0.17299999999999999
aF0.44700000000000001
aF0.0
aF0.0
aF0.0
aF1.0
asVType
p112
g107
sVBusnum
p113
I5
sVBusnam
p114
g108
sVBase_kV
p115
F22.0
sVId
p116
g109
sVRlevel
p117
g110
sVMbase
p118
F900.0
sVTpdo
p119
F6.5
sVTppdo
p120
F0.079000000000000001
sVTpdq
p121
F0.53000000000000003
sVTppqo
p122
F0.071999999999999995
sVH
p123
F4.0
sVD
p124
F0.0
sVLd
p125
F1.24
sVLq
p126
F1.22
sVLpd
p127
F0.23000000000000001
sVLpq
p128
F0.35999999999999999
sVLppd
p129
F0.17000000000000001
sVLl
p130
F0.14000000000000001
sVS1
p131
F0.17299999999999999
sVS12
p132
F0.44700000000000001
sVRa
p133
F0.0
sVRcomp
p134
F0.0
sVXcomp
p135
F0.0
sVAccel
p136
F1.0
sbsVgov_model
p137
I00
sVTimer
p138
(dp139
sbasg16
g59
sVGens
p140
g63
ssV4
p141
(dp142
g51
(lp143
g1
(g54
g3
Ntp145
Rp144
(dp146
g57
g0
sg58
g1
(g18
g3
Ntp148
Rp147
(dp149
g21
g0
sg22
I2
sg23
V4
p150
sg25
I4
sg26
I9
sg27
I2
sg28
I0
sg29
I1
sg30
I0
sg31
(lp151
g144
asg33
(lp152
sg35
(lp153
sg37
(lp154
sg39
(lp155
sg41
(dp156
sg43
(dp157
g45
F1.0
sg46
F-0.055002372711896896
ssg47
F22.0
sg48
F1.0
sbsg70
V1
p158
sg72
g73
sg74
I2
sg75
I1
sg76
V4
p159
sg78
I4
sg79
I9
sg80
I00
sg81
I00
sg82
Nsg83
Nsg84
F900.0
sg85
F3600.0
sg86
F4.0
sg87
F800.0
sg88
F9900.0
sg89
F0.0
sg90
(dp160
g92
F210.0
sg93
I00
sg94
F210.0
sg95
F0.0
sg96
F64.328545000000005
sg97
I1
sg98
F210.0
sg99
F210.0
ssg100
g1
(g102
g3
Ntp162
Rp161
(dp163
g105
(lp164
Vgenrou
p165
aI4
aV4
p166
aF22.0
aV1
p167
aV#9
p168
aVmva=900.00
p169
aF6.5
aF0.079000000000000001
aF0.53000000000000003
aF0.071999999999999995
aF4.0
aF0.0
aF1.24
aF1.22
aF0.23000000000000001
aF0.35999999999999999
aF0.17000000000000001
aF0.14000000000000001
aF0.17299999999999999
aF0.44700000000000001
aF0.0
aF0.0
aF0.0
aF1.0
asg112
g165
sg113
I4
sg114
g166
sg115
F22.0
sg116
g167
sg117
g168
sg118
F900.0
sg119
F6.5
sg120
F0.079000000000000001
sg121
F0.53000000000000003
sg122
F0.071999999999999995
sg123
F4.0
sg124
F0.0
sg125
F1.24
sg126
F1.22
sg127
F0.23000000000000001
sg128
F0.35999999999999999
sg129
F0.17000000000000001
sg130
F0.14000000000000001
sg131
F0.17299999999999999
sg132
F0.44700000000000001
sg133
F0.0
sg134
F0.0
sg135
F0.0
sg136
F1.0
sbsg137
I00
sg138
(dp170
sbasg16
g147
sg140
g151
ssV11
p171
(dp172
g16
g1
(g18
g3
Ntp174
Rp173
(dp175
g21
g0
sg22
I2
sg23
V11
p176
sg25
I11
sg26
I5
sg27
I1
sg28
I0
sg29
I0
sg30
I0
sg31
(lp177
sg33
(lp178
sg35
(lp179
sg37
(lp180
sg39
(lp181
sg41
(dp182
sg43
(dp183
g45
F0.95894789695739746
sg46
F-0.27578160166740417
ssg47
F138.0
sg48
F1.0
sbssV2
p184
(dp185
g51
(lp186
g1
(g54
g3
Ntp188
Rp187
(dp189
g57
g0
sg58
g1
(g18
g3
Ntp191
Rp190
(dp192
g21
g0
sg22
I1
sg23
V2
p193
sg25
I2
sg26
I7
sg27
I2
sg28
I0
sg29
I2
sg30
I0
sg31
(lp194
g187
ag1
(g54
g3
Ntp196
Rp195
(dp197
g57
g0
sg58
g190
sg70
V2
p198
sg72
g73
sg74
I1
sg75
I1
sg76
V2
p199
sg78
I2
sg79
I7
sg80
I00
sg81
I00
sg82
Nsg83
Nsg84
F900.0
sg85
F3600.0
sg86
F4.0
sg87
F800.0
sg88
F9900.0
sg89
F0.0
sg90
(dp200
g92
F220.0
sg93
I00
sg94
F220.0
sg95
F0.0
sg96
F75.033691000000005
sg97
I1
sg98
F220.0
sg99
F220.0
ssg100
g1
(g102
g3
Ntp202
Rp201
(dp203
g105
(lp204
Vgenrou
p205
aI2
aV2
p206
aF22.0
aV2
p207
aV#9
p208
aVmva=900.00
p209
aF6.5
aF0.079000000000000001
aF0.53000000000000003
aF0.071999999999999995
aF4.0
aF0.0
aF1.24
aF1.22
aF0.23000000000000001
aF0.35999999999999999
aF0.17000000000000001
aF0.14000000000000001
aF0.17299999999999999
aF0.44700000000000001
aF0.0
aF0.0
aF0.0
aF1.0
asg112
g205
sg113
I2
sg114
g206
sg115
F22.0
sg116
g207
sg117
g208
sg118
F900.0
sg119
F6.5
sg120
F0.079000000000000001
sg121
F0.53000000000000003
sg122
F0.071999999999999995
sg123
F4.0
sg124
F0.0
sg125
F1.24
sg126
F1.22
sg127
F0.23000000000000001
sg128
F0.35999999999999999
sg129
F0.17000000000000001
sg130
F0.14000000000000001
sg131
F0.17299999999999999
sg132
F0.44700000000000001
sg133
F0.0
sg134
F0.0
sg135
F0.0
sg136
F1.0
sbsg137
I00
sg138
(dp210
sbasg33
(lp211
sg35
(lp212
sg37
(lp213
sg39
(lp214
sg41
(dp215
sg43
(dp216
g45
F1.0
sg46
F0.19844159483909607
ssg47
F22.0
sg48
F1.0
sbsg70
V1
p217
sg72
g73
sg74
I1
sg75
I1
sg76
V2
p218
sg78
I2
sg79
I7
sg80
I00
sg81
I00
sg82
Nsg83
Nsg84
F900.0
sg85
F3600.0
sg86
F4.0
sg87
F800.0
sg88
F9900.0
sg89
F0.0
sg90
(dp219
g92
F220.0
sg93
I00
sg94
F220.0
sg95
F0.0
sg96
F75.033691000000005
sg97
I1
sg98
F220.0
sg99
F220.0
ssg100
g1
(g102
g3
Ntp221
Rp220
(dp222
g105
(lp223
Vgenrou
p224
aI2
aV2
p225
aF22.0
aV1
p226
aV#9
p227
aVmva=900.00
p228
aF6.5
aF0.079000000000000001
aF0.53000000000000003
aF0.071999999999999995
aF4.0
aF0.0
aF1.24
aF1.22
aF0.23000000000000001
aF0.35999999999999999
aF0.17000000000000001
aF0.14000000000000001
aF0.17299999999999999
aF0.44700000000000001
aF0.0
aF0.0
aF0.0
aF1.0
asg112
g224
sg113
I2
sg114
g225
sg115
F22.0
sg116
g226
sg117
g227
sg118
F900.0
sg119
F6.5
sg120
F0.079000000000000001
sg121
F0.53000000000000003
sg122
F0.071999999999999995
sg123
F4.0
sg124
F0.0
sg125
F1.24
sg126
F1.22
sg127
F0.23000000000000001
sg128
F0.35999999999999999
sg129
F0.17000000000000001
sg130
F0.14000000000000001
sg131
F0.17299999999999999
sg132
F0.44700000000000001
sg133
F0.0
sg134
F0.0
sg135
F0.0
sg136
F1.0
sbsg137
I00
sg138
(dp229
sbag195
asg16
g190
sg140
g194
ssV1
p230
(dp231
g51
(lp232
g1
(cpsltdsim.systemAgents.SlackAgent
SlackAgent
p234
g3
Ntp235
Rp233
(dp236
g57
g0
sg58
g1
(g18
g3
Ntp238
Rp237
(dp239
g21
g0
sg22
I1
sg23
V1
p240
sg25
I1
sg26
I6
sg27
I0
sg28
I0
sg29
I1
sg30
I0
sg31
(lp241
sg33
(lp242
g233
asg35
(lp243
sg37
(lp244
sg39
(lp245
sg41
(dp246
sg43
(dp247
g45
F1.0
sg46
F0.0
ssg47
F22.0
sg48
F1.0
sbsg70
V1
p248
sg72
g73
sg74
I1
sg75
I1
sg76
V1
p249
sg78
I1
sg79
I6
sg80
I01
sg81
I01
sg82
Nsg83
Nsg84
F900.0
sg85
F3600.0
sg86
F4.0
sg87
F800.0
sg88
F9900.0
sg89
F0.0
sg90
(dp250
VPe
p251
F261.27435000000003
sVPm
p252
F261.27435000000003
sVPref
p253
F261.27435000000003
sVP0
p254
F261.27435000000003
sVPe_error
p255
F0.0
sVSCE
p256
I0
sVIRPflag
p257
I00
sVSt
p258
I1
sVPe_calc
p259
F261.27435000000003
sVQ
p260
F78.953368999999995
ssg100
g1
(g102
g3
Ntp262
Rp261
(dp263
g105
(lp264
Vgenrou
p265
aI1
aV1
p266
aF22.0
aV1
p267
aV#9
p268
aVmva=900.00
p269
aF6.5
aF0.079000000000000001
aF0.53000000000000003
aF0.071999999999999995
aF4.0
aF0.0
aF1.24
aF1.22
aF0.23000000000000001
aF0.35999999999999999
aF0.17000000000000001
aF0.14000000000000001
aF0.17299999999999999
aF0.44700000000000001
aF0.0
aF0.0
aF0.0
aF1.0
asg112
g265
sg113
I1
sg114
g266
sg115
F22.0
sg116
g267
sg117
g268
sg118
F900.0
sg119
F6.5
sg120
F0.079000000000000001
sg121
F0.53000000000000003
sg122
F0.071999999999999995
sg123
F4.0
sg124
F0.0
sg125
F1.24
sg126
F1.22
sg127
F0.23000000000000001
sg128
F0.35999999999999999
sg129
F0.17000000000000001
sg130
F0.14000000000000001
sg131
F0.17299999999999999
sg132
F0.44700000000000001
sg133
F0.0
sg134
F0.0
sg135
F0.0
sg136
F1.0
sbsg137
I00
sg138
(dp270
sVTol
p271
I1
sbasg16
g237
sVSlack
p272
g242
ssV3
p273
(dp274
g51
(lp275
g1
(g54
g3
Ntp277
Rp276
(dp278
g57
g0
sg58
g1
(g18
g3
Ntp280
Rp279
(dp281
g21
g0
sg22
I2
sg23
V3
p282
sg25
I3
sg26
I8
sg27
I2
sg28
I0
sg29
I1
sg30
I0
sg31
(lp283
g276
asg33
(lp284
sg35
(lp285
sg37
(lp286
sg39
(lp287
sg41
(dp288
sg43
(dp289
g45
F1.0
sg46
F-0.055002372711896896
ssg47
F22.0
sg48
F1.0
sbsg70
V1
p290
sg72
g73
sg74
I2
sg75
I1
sg76
V3
p291
sg78
I3
sg79
I8
sg80
I00
sg81
I01
sg82
Nsg83
Nsg84
F900.0
sg85
F3600.0
sg86
F4.0
sg87
F800.0
sg88
F9900.0
sg89
F0.0
sg90
(dp292
g92
F210.0
sg93
I00
sg94
F210.0
sg95
F0.0
sg96
F64.328545000000005
sg97
I1
sg98
F210.0
sg99
F210.0
ssg100
g1
(g102
g3
Ntp294
Rp293
(dp295
g105
(lp296
Vgenrou
p297
aI3
aV3
p298
aF22.0
aV1
p299
aV#9
p300
aVmva=900.00
p301
aF6.5
aF0.079000000000000001
aF0.53000000000000003
aF0.071999999999999995
aF4.0
aF0.0
aF1.24
aF1.22
aF0.23000000000000001
aF0.35999999999999999
aF0.17000000000000001
aF0.14000000000000001
aF0.17299999999999999
aF0.44700000000000001
aF0.0
aF0.0
aF0.0
aF1.0
asg112
g297
sg113
I3
sg114
g298
sg115
F22.0
sg116
g299
sg117
g300
sg118
F900.0
sg119
F6.5
sg120
F0.079000000000000001
sg121
F0.53000000000000003
sg122
F0.071999999999999995
sg123
F4.0
sg124
F0.0
sg125
F1.24
sg126
F1.22
sg127
F0.23000000000000001
sg128
F0.35999999999999999
sg129
F0.17000000000000001
sg130
F0.14000000000000001
sg131
F0.17299999999999999
sg132
F0.44700000000000001
sg133
F0.0
sg134
F0.0
sg135
F0.0
sg136
F1.0
sbsg137
I00
sg138
(dp302
sbasg16
g279
sg140
g283
ssVNames
p303
(dp304
g24
I6
sg62
I5
sg150
I4
sg176
I11
sg193
I2
sg240
I1
sg282
I3
sV9
p305
I9
sV8
p306
I8
sV10
p307
I10
sV7
p308
I7
ssV9
p309
(dp310
VShunt
p311
(lp312
g1
(cpsltdsim.systemAgents.ShuntAgent
ShuntAgent
p314
g3
Ntp315
Rp313
(dp316
Vmirror
p317
g0
sVBus
p318
g1
(g18
g3
Ntp320
Rp319
(dp321
g21
g0
sg22
I2
sg23
g305
sg25
I9
sg26
I3
sg27
I1
sg28
I2
sg29
I0
sg30
I4
sg31
(lp322
sg33
(lp323
sg35
(lp324
g1
(cpsltdsim.systemAgents.LoadAgent
LoadAgent
p326
g3
Ntp327
Rp325
(dp328
Vmirror
p329
g0
sVBus
p330
g319
sVBusnum
p331
I9
sVId
p332
V1
p333
sVArea
p334
I2
sVZone
p335
I1
sVcv
p336
(dp337
VP
p338
F750.0
sVSt
p339
I1
sVQ
p340
F100.0
ssVTimer
p341
(dp342
sbag1
(g326
g3
Ntp344
Rp343
(dp345
g329
g0
sg330
g319
sg331
I9
sg332
V2
p346
sg334
I2
sg335
I1
sg336
(dp347
g338
F50.0
sg339
I0
sg340
F0.0
ssg341
(dp348
sbasg37
g312
sg39
(lp349
sg41
(dp350
sg43
(dp351
g45
F0.95708489418029785
sg46
F-0.28735685348510742
ssg47
F138.0
sg48
F1.0
sbsVArea
p352
I2
sVZone
p353
I0
sVId
p354
V1
p355
sVB
p356
F1.0
sVG
p357
F0.0
sVFBusnam
p358
V9
p359
sVFBusnum
p360
I9
sVFkv
p361
F138.0
sVTBusnam
p362
g73
sVTBusnum
p363
I-1
sVTkv
p364
F0.0
sVcv
p365
(dp366
VSt
p367
I1
ssVTimer
p368
(dp369
sbag1
(g314
g3
Ntp371
Rp370
(dp372
g317
g0
sg318
g319
sg352
I2
sg353
I0
sg354
V2
p373
sg356
F0.5
sg357
F0.0
sg358
V9
p374
sg360
I9
sg361
F138.0
sg362
g73
sg363
I-1
sg364
F0.0
sg365
(dp375
g367
I0
ssg368
(dp376
sbag1
(g314
g3
Ntp378
Rp377
(dp379
g317
g0
sg318
g319
sg352
I2
sg353
I0
sg354
V3
p380
sg356
F0.5
sg357
F0.0
sg358
V9
p381
sg360
I9
sg361
F138.0
sg362
g73
sg363
I-1
sg364
F0.0
sg365
(dp382
g367
I0
ssg368
(dp383
sbag1
(g314
g3
Ntp385
Rp384
(dp386
g317
g0
sg318
g319
sg352
I2
sg353
I0
sg354
V4
p387
sg356
F0.5
sg357
F0.0
sg358
V9
p388
sg360
I9
sg361
F138.0
sg362
g73
sg363
I-1
sg364
F0.0
sg365
(dp389
g367
I0
ssg368
(dp390
sbasg16
g319
sVLoad
p391
g324
ssV8
p392
(dp393
g311
(lp394
g1
(g314
g3
Ntp396
Rp395
(dp397
g317
g0
sg318
g1
(g18
g3
Ntp399
Rp398
(dp400
g21
g0
sg22
I1
sg23
g306
sg25
I8
sg26
I2
sg27
I1
sg28
I2
sg29
I0
sg30
I4
sg31
(lp401
sg33
(lp402
sg35
(lp403
g1
(g326
g3
Ntp405
Rp404
(dp406
g329
g0
sg330
g398
sg331
I8
sg332
V1
p407
sg334
I1
sg335
I1
sg336
(dp408
g338
F600.0
sg339
I1
sg340
F100.0
ssg341
(dp409
sbag1
(g326
g3
Ntp411
Rp410
(dp412
g329
g0
sg330
g398
sg331
I8
sg332
V2
p413
sg334
I1
sg335
I1
sg336
(dp414
g338
F50.0
sg339
I0
sg340
F0.0
ssg341
(dp415
sbasg37
g394
sg39
(lp416
sg41
(dp417
sg43
(dp418
g45
F0.95701605081558228
sg46
F-0.28697967529296875
ssg47
F138.0
sg48
F1.0
sbsg352
I1
sg353
I0
sg354
V1
p419
sg356
F1.0
sg357
F0.0
sg358
V8
p420
sg360
I8
sg361
F138.0
sg362
g73
sg363
I-1
sg364
F0.0
sg365
(dp421
g367
I1
ssg368
(dp422
sbag1
(g314
g3
Ntp424
Rp423
(dp425
g317
g0
sg318
g398
sg352
I1
sg353
I0
sg354
V2
p426
sg356
F0.5
sg357
F0.0
sg358
V8
p427
sg360
I8
sg361
F138.0
sg362
g73
sg363
I-1
sg364
F0.0
sg365
(dp428
g367
I1
ssg368
(dp429
sbag1
(g314
g3
Ntp431
Rp430
(dp432
g317
g0
sg318
g398
sg352
I1
sg353
I0
sg354
V3
p433
sg356
F0.5
sg357
F0.0
sg358
V8
p434
sg360
I8
sg361
F138.0
sg362
g73
sg363
I-1
sg364
F0.0
sg365
(dp435
g367
I0
ssg368
(dp436
sbag1
(g314
g3
Ntp438
Rp437
(dp439
g317
g0
sg318
g398
sg352
I1
sg353
I0
sg354
V4
p440
sg356
F0.5
sg357
F0.0
sg358
V8
p441
sg360
I8
sg361
F138.0
sg362
g73
sg363
I-1
sg364
F0.0
sg365
(dp442
g367
I0
ssg368
(dp443
sbasg16
g398
sg391
g403
ssV10
p444
(dp445
g16
g1
(g18
g3
Ntp447
Rp446
(dp448
g21
g0
sg22
I2
sg23
g307
sg25
I10
sg26
I4
sg27
I1
sg28
I0
sg29
I0
sg30
I0
sg31
(lp449
sg33
(lp450
sg35
(lp451
sg37
(lp452
sg39
(lp453
sg41
(dp454
sg43
(dp455
g45
F0.95818334817886353
sg46
F-0.28031745553016663
ssg47
F138.0
sg48
F1.0
sbssV7
p456
(dp457
g16
g1
(g18
g3
Ntp459
Rp458
(dp460
g21
g0
sg22
I1
sg23
g308
sg25
I7
sg26
I1
sg27
I1
sg28
I0
sg29
I0
sg30
I0
sg31
(lp461
sg33
(lp462
sg35
(lp463
sg37
(lp464
sg39
(lp465
sg41
(dp466
sg43
(dp467
g45
F0.95707130432128906
sg46
F-0.27925622463226318
ssg47
F138.0
sg48
F1.0000009999999999
sbsssVSimTime
p468
F0.0
sVIVPTime
p469
F0.0
sVDynamicTime
p470
F0.0
sVPFTime
p471
F0.061737060546875
sVIPYmsgMake
p472
F0.0
sVIPYSendTime
p473
F0.0
sVIPYdistPaccTime
p474
F0.0
sVIPYPvalsTime
p475
F0.0
sVPY3SendTime
p476
F0.0
sVPY3RecTime
p477
F0.0
sVFindTime
p478
F0.00249481201171875
sVIPYFindTime
p479
F0.0
sVDynamicSolns
p480
I0
sVPFSolns
p481
I1
sVPY3msgs
p482
I0
sVIPYmsgs
p483
I0
sVsimParams
p484
(dp485
VfileName
p486
VSixMachineStep3
p487
sVdeleteInit
p488
I0
sVfileDirectory
p489
V\u005cdelme\u005csixMachineStep\u005c
p490
sVexportDict
p491
I0
sVslackTol
p492
I1
sVIPYmsgGroup
p493
I60
sVHinput
p494
V.75
p495
sVPY3msgGroup
p496
I3
sVDsys
p497
F0.0
sVexportMat
p498
I1
sVfreqEffects
p499
I01
sVexportFinalMirror
p500
I1
sVfBase
p501
F60.0
sVendTime
p502
F60.0
sVtimeStep
p503
F1.0
sVintegrationMethod
p504
Vrk45
p505
ssVlocations
p506
(dp507
VltdPath
p508
V.\u005ctestCases\u005csixMachine\u005csixMachineStep.ltd.py
p509
sVsavPath
p510
VC:\u005cLTD\u005cpslf_systems\u005csixMachine\u005csixMachine.sav
p511
sVpslfPath
p512
VC:\u005cProgram Files (x86)\u005cGE PSLF
p513
sVmiddlewareFilePath
p514
VC:\u005cProgram Files (x86)\u005cGE PSLF\u005cPslfMiddleware
p515
sVdydPath
p516
(lp517
VC:\u005cLTD\u005cpslf_systems\u005csixMachine\u005csixMachine.dyd
p518
assVdebug
p519
I0
sVdebugTimer
p520
I0
sVAMQPdebug
p521
I0
sVtimeStep
p522
F1.0
sVendTime
p523
F60.0
sVslackTol
p524
I1
sVHinput
p525
g495
sVDsys
p526
F0.0
sVIPYmsgGroup
p527
I60
sVPY3msgGroup
p528
I3
sVfBase
p529
F60.0
sVdataPoints
p530
I61
sVcv
p531
(dp532
Vt
p533
F0.0
sVdp
p534
I0
sVdeltaF
p535
F0.0
sVf
p536
F1.0
sVfdot
p537
F0.0
ssVss_H
p538
F21600.0
sVss_Hgov
p539
F0.0
sVss_Pe
p540
F0.0
sVss_Pm
p541
F0.0
sVss_Pacc
p542
F0.0
sVss_Qgen
p543
F0.0
sVss_Qload
p544
F0.0
sVss_Pload
p545
F0.0
sVss_Pert_Pdelta
p546
F0.0
sVss_Pert_Qdelta
p547
F0.0
sVArea
p548
(lp549
g1
(cpsltdsim.systemAgents.AreaAgent
AreaAgent
p551
g3
Ntp552
Rp550
(dp553
Vmirror
p554
g0
sVArea
p555
I1
sVNgen
p556
I3
sVNload
p557
I2
sVNbranch
p558
I5
sVNshunt
p559
I4
sVBranch
p560
(lp561
g1
(cpsltdsim.systemAgents.BranchAgent
BranchAgent
p563
g3
Ntp564
Rp562
(dp565
Vmirror
p566
g0
sVArea
p567
g550
sVCk
p568
V1
p569
sVId
p570
g569
sVScanBus
p571
I0
sVSec
p572
I1
sVFbusIndex
p573
I0
sVTbusIndex
p574
I1
sVBus
p575
g17
sVTBus
p576
g458
sVcv
p577
(dp578
VAmps
p579
F1141.9100341796875
sVSt
p580
I1
ssVX
p581
F0.001
sVR
p582
F0.00010000000000000001
sVB
p583
F0.00175
sVLength
p584
F0.0
sbag1
(g563
g3
Ntp586
Rp585
(dp587
g566
g0
sg567
g550
sg568
V1
p588
sg570
g588
sg571
I1
sg572
I1
sg573
I1
sg574
I2
sg575
g458
sg576
g398
sg577
(dp589
g579
F3077.218994140625
sg580
I1
ssg581
F0.001
sg582
F0.00010000000000000001
sg583
F0.00175
sg584
F0.0
sbag1
(g563
g3
Ntp591
Rp590
(dp592
g566
g0
sg567
g550
sg568
V1
p593
sg570
g593
sg571
I2
sg572
I1
sg573
I2
sg574
I3
sg575
g398
sg576
g319
sg577
(dp594
g579
F153.08587646484375
sg580
I1
ssg581
F0.001
sg582
F0.00010000000000000001
sg583
F0.00175
sg584
F0.0
sbag1
(g563
g3
Ntp596
Rp595
(dp597
g566
g0
sg567
g550
sg568
V2
p598
sg570
g598
sg571
I2
sg572
I1
sg573
I2
sg574
I3
sg575
g398
sg576
g319
sg577
(dp599
g579
F153.08587646484375
sg580
I1
ssg581
F0.001
sg582
F0.00010000000000000001
sg583
F0.00175
sg584
F0.0
sbag1
(g563
g3
Ntp601
Rp600
(dp602
g566
g0
sg567
g550
sg568
V3
p603
sg570
g603
sg571
I2
sg572
I1
sg573
I2
sg574
I3
sg575
g398
sg576
g319
sg577
(dp604
g579
F153.08587646484375
sg580
I1
ssg581
F0.001
sg582
F0.00010000000000000001
sg583
F0.00175
sg584
F0.0
sbasVGens
p605
(lp606
g187
ag195
asVLoad
p607
(lp608
g404
ag410
asVSlack
p609
(lp610
g233
asVMachines
p611
(lp612
g233
ag187
ag195
asVPowerPlant
p613
(lp614
sVBus
p615
(lp616
g17
ag458
ag398
ag237
ag190
asVShunt
p617
(lp618
g395
ag423
ag430
ag437
asVTimer
p619
(dp620
sVBA
p621
NsVAreaSlack
p622
g233
sVcv
p623
(dp624
VPm
p625
F0.0
sVICerror
p626
I0
sVQ
p627
F0.0
sVP
p628
F0.0
sVIC
p629
I0
sVSCEsum
p630
F0.0
sVPe
p631
F0.0
sVIC0
p632
I0
ssVbeta
p633
F0.0
sbag1
(g551
g3
Ntp635
Rp634
(dp636
g554
g0
sg555
I2
sg556
I3
sg557
I2
sg558
I2
sg559
I4
sg560
(lp637
g1
(g563
g3
Ntp639
Rp638
(dp640
g566
g0
sg567
g634
sg568
V1
p641
sg570
g641
sg571
I5
sg572
I1
sg573
I5
sg574
I4
sg575
g173
sg576
g446
sg577
(dp642
g579
F1837.7880859375
sg580
I1
ssg581
F0.001
sg582
F0.00010000000000000001
sg583
F0.00175
sg584
F0.0
sbag1
(g563
g3
Ntp644
Rp643
(dp645
g566
g0
sg567
g634
sg568
V1
p646
sg570
g646
sg571
I4
sg572
I1
sg573
I4
sg574
I3
sg575
g446
sg576
g319
sg577
(dp647
g579
F2843.343505859375
sg580
I1
ssg581
F0.001
sg582
F0.00010000000000000001
sg583
F0.00175
sg584
F0.0
sbasg605
(lp648
g276
ag144
ag53
asg607
(lp649
g325
ag343
asg609
(lp650
sg611
(lp651
g276
ag144
ag53
asg613
(lp652
sg615
(lp653
g319
ag446
ag173
ag279
ag147
ag59
asg617
(lp654
g313
ag370
ag377
ag384
asg619
(dp655
sg621
Nsg622
g276
sg623
(dp656
g625
F0.0
sg626
I0
sg627
F0.0
sg628
F0.0
sg629
I0
sg630
F0.0
sg631
F0.0
sg632
I0
ssg633
F0.0
sbasVBAdict
p657
(dp658
sVBA
p659
(lp660
sVBranch
p661
(lp662
g562
ag585
ag590
ag595
ag600
ag638
ag643
asVBus
p663
(lp664
g17
ag458
ag398
ag237
ag190
ag319
ag446
ag173
ag279
ag147
ag59
asVDynamics
p665
(lp666
sVGens
p667
(lp668
g187
ag195
ag276
ag144
ag53
asVLoad
p669
(lp670
g404
ag410
ag325
ag343
asVPerturbance
p671
(lp672
sVAGCramp
p673
(lp674
sVPowerPlant
p675
(lp676
sVShunt
p677
(lp678
g395
ag423
ag430
ag437
ag313
ag370
ag377
ag384
asVSlack
p679
(lp680
g233
asVTimer
p681
(dp682
sVglobalSlack
p683
g233
sVFilter
p684
(lp685
sVNgen
p686
I6
sVNbus
p687
I11
sVNload
p688
I4
sVNarea
p689
I2
sVNzone
p690
I1
sVNbrsec
p691
I7
sVNshunt
p692
I8
sVSbase
p693
F100.0
sVMachines
p694
(lp695
g233
ag187
ag195
ag276
ag144
ag53
asVLog
p696
(lp697
g0
ag404
ag410
ag325
ag343
ag17
ag458
ag398
ag237
ag190
ag319
ag446
ag173
ag279
ag147
ag59
ag233
ag187
ag195
ag276
ag144
ag53
ag550
ag634
ag395
ag423
ag430
ag437
ag313
ag370
ag377
ag384
ag562
ag585
ag590
ag595
ag600
ag638
ag643
asVPSLFmach
p698
(lp699
g261
ag220
ag201
ag293
ag161
ag101
asVPSLFgov
p700
(lp701
g1
(cpsltdsim.pslfModels.tgov1
tgov1
p703
g3
Ntp704
Rp702
(dp705
Vmirror
p706
g0
sVdydLine
p707
(lp708
Vtgov1
p709
aI1
aV1
p710
aF22.0
aV1
p711
aV#1
p712
aVmwcap=800.0000
p713
aF0.050000000000000003
aF0.40000000000000002
aF1.0
aF0.0
aF3.0
aF10.0
aF0.0
asVparams
p714
I13
sVType
p715
g709
sVBusnum
p716
I1
sVBusnam
p717
g710
sVBase_kV
p718
F22.0
sVId
p719
g711
sVRlevel
p720
g712
sVGen
p721
g233
sVmwCap
p722
F800.0
sVR
p723
F0.050000000000000003
sVT1
p724
F0.40000000000000002
sVVmax
p725
F1.0
sVVmin
p726
F0.0
sVT2
p727
F3.0
sVT3
p728
F10.0
sVDt
p729
F0.0
sbag1
(g703
g3
Ntp731
Rp730
(dp732
g706
g0
sg707
(lp733
Vtgov1
p734
aI2
aV2
p735
aF22.0
aV1
p736
aV#1
p737
aVmwcap=800.0000
p738
aF0.050000000000000003
aF0.40000000000000002
aF1.0
aF0.0
aF3.0
aF10.0
aF0.0
asg714
I13
sg715
g734
sg716
I2
sg717
g735
sg718
F22.0
sg719
g736
sg720
g737
sg721
g187
sg722
F800.0
sg723
F0.050000000000000003
sg724
F0.40000000000000002
sg725
F1.0
sg726
F0.0
sg727
F3.0
sg728
F10.0
sg729
F0.0
sbag1
(g703
g3
Ntp740
Rp739
(dp741
g706
g0
sg707
(lp742
Vtgov1
p743
aI2
aV2
p744
aF22.0
aV2
p745
aV#1
p746
aVmwcap=800.0000
p747
aF0.050000000000000003
aF0.40000000000000002
aF1.0
aF0.0
aF3.0
aF10.0
aF0.0
asg714
I13
sg715
g743
sg716
I2
sg717
g744
sg718
F22.0
sg719
g745
sg720
g746
sg721
g195
sg722
F800.0
sg723
F0.050000000000000003
sg724
F0.40000000000000002
sg725
F1.0
sg726
F0.0
sg727
F3.0
sg728
F10.0
sg729
F0.0
sbag1
(g703
g3
Ntp749
Rp748
(dp750
g706
g0
sg707
(lp751
Vtgov1
p752
aI3
aV3
p753
aF22.0
aV1
p754
aV#1
p755
aVmwcap=800.0000
p756
aF0.050000000000000003
aF0.40000000000000002
aF1.0
aF0.0
aF3.0
aF10.0
aF0.0
asg714
I13
sg715
g752
sg716
I3
sg717
g753
sg718
F22.0
sg719
g754
sg720
g755
sg721
g276
sg722
F800.0
sg723
F0.050000000000000003
sg724
F0.40000000000000002
sg725
F1.0
sg726
F0.0
sg727
F3.0
sg728
F10.0
sg729
F0.0
sbag1
(g703
g3
Ntp758
Rp757
(dp759
g706
g0
sg707
(lp760
Vtgov1
p761
aI4
aV4
p762
aF22.0
aV1
p763
aV#1
p764
aVmwcap=800.0000
p765
aF0.050000000000000003
aF0.40000000000000002
aF1.0
aF0.0
aF3.0
aF10.0
aF0.0
asg714
I13
sg715
g761
sg716
I4
sg717
g762
sg718
F22.0
sg719
g763
sg720
g764
sg721
g144
sg722
F800.0
sg723
F0.050000000000000003
sg724
F0.40000000000000002
sg725
F1.0
sg726
F0.0
sg727
F3.0
sg728
F10.0
sg729
F0.0
sbasVHsys
p766
F16200.0
sVbranchDict
p767
(dp768
V5
p769
(dp770
g641
g638
ssV4
p771
(dp772
g646
g643
ssV2
p773
(dp774
g603
g600
sg598
g595
sg593
g590
ssV1
p775
(dp776
g588
g585
ssV0
p777
(dp778
g569
g562
sssVInitTime
p779
F0.204681396484375
sb.sb.