(dp0
S'fdot'
p1
(lp2
F0.0
aF0.0
aF0.0
aF-0.013513513513513513
aF-0.013793100817450159
aF-0.013992084507476216
aF-0.014199260547875379
aF-0.014415912298665411
aF-0.014642789637448752
aF-0.014880722822964654
aF-0.015130639583537482
aF-0.015393580376103524
aF-0.015670716623880771
aF-0.015963372692851457
aF-0.016273052547922107
aF-0.016601472313295274
aF-0.016950600346625343
aF-0.01732270696471698
aF-0.017720426692022149
aF-0.018146836935417267
aF-0.018605558462424111
asS'Pm'
p3
(lp4
F100.00000762939453
aF100.00000762939453
aF100.00000762939453
aF100.00000762939453
aF100.00000762939453
aF100.00000762939453
aF100.00000762939453
aF100.00000762939453
aF100.00000762939453
aF100.00000762939453
aF100.00000762939453
aF100.00000762939453
aF100.00000762939453
aF100.00000762939453
aF100.00000762939453
aF100.00000762939453
aF100.00000762939453
aF100.00000762939453
aF100.00000762939453
aF100.00000762939453
aF100.00000762939453
asS't'
p5
(lp6
F0.0
aF1.0
aF2.0
aF3.0
aF4.0
aF5.0
aF6.0
aF7.0
aF8.0
aF9.0
aF10.0
aF11.0
aF12.0
aF13.0
aF14.0
aF15.0
aF16.0
aF17.0
aF18.0
aF19.0
aF20.0
asS'Qgen'
p7
(lp8
F0.0
aF0.0
aF0.0
aF0.0
aF0.0
aF0.0
aF0.0
aF0.0
aF0.0
aF0.0
aF0.0
aF0.0
aF0.0
aF0.0
aF0.0
aF0.0
aF0.0
aF0.0
aF0.0
aF0.0
aF0.0
asS'deltaF'
p9
(lp10
F0.0
aF0.0
aF0.0
aF-0.020270270270270285
aF-0.013932894469418478
aF-0.014091576352489255
aF-0.014302848568074955
aF-0.014524238174060455
aF-0.014756228306840424
aF-0.014999689415722606
aF-0.015255597963823919
aF-0.015525050772386528
aF-0.015809284747769325
aF-0.016109700727336751
aF-0.016427892475457506
aF-0.016765682195981846
aF-0.017125164363290368
aF-0.017508760273762802
aF-0.017919286555674652
aF-0.018360042057114834
aF-0.018834919225927615
asS'Pload'
p11
(lp12
F100.0
aF100.0
aF120.0
aF120.0
aF120.0
aF120.0
aF120.0
aF120.0
aF120.0
aF120.0
aF120.0
aF120.0
aF120.0
aF120.0
aF120.0
aF120.0
aF120.0
aF120.0
aF120.0
aF120.0
aF120.0
asS'Qload'
p13
(lp14
F0.0
aF0.0
aF0.0
aF0.0
aF0.0
aF0.0
aF0.0
aF0.0
aF0.0
aF0.0
aF0.0
aF0.0
aF0.0
aF0.0
aF0.0
aF0.0
aF0.0
aF0.0
aF0.0
aF0.0
aF0.0
asS'Pacc'
p15
(lp16
F0.0
aF0.0
aF-20.0
aF-19.999996185302734
aF-19.999996185302734
aF-19.999996185302734
aF-19.999996185302734
aF-19.999996185302734
aF-19.999996185302734
aF-19.999996185302734
aF-19.999996185302734
aF-19.999996185302734
aF-19.999996185302734
aF-19.999996185302734
aF-19.999996185302734
aF-19.999996185302734
aF-19.999996185302734
aF-19.999996185302734
aF-19.999996185302734
aF-19.999996185302734
aF-19.999996185302734
asS'f'
p17
(lp18
F1.0
aF1.0
aF1.0
aF0.97972972972972971
aF0.96579683526031124
aF0.95170525890782198
aF0.93740241033974703
aF0.92287817216568657
aF0.90812194385884615
aF0.89312225444312354
aF0.87786665647929962
aF0.86234160570691309
aF0.84653232095914377
aF0.83042262023180702
aF0.81399472775634951
aF0.79722904556036767
aF0.7801038811970773
aF0.7625951209233145
aF0.74467583436763984
aF0.72631579231052501
aF0.70748087308459739
asS'Hsys'
p19
F740.0
sS'Pe'
p20
(lp21
F100.00000762939453
aF100.00000762939453
aF120.00000381469727
aF120.00000381469727
aF120.00000381469727
aF120.00000381469727
aF120.00000381469727
aF120.00000381469727
aF120.00000381469727
aF120.00000381469727
aF120.00000381469727
aF120.00000381469727
aF120.00000381469727
aF120.00000381469727
aF120.00000381469727
aF120.00000381469727
aF120.00000381469727
aF120.00000381469727
aF120.00000381469727
aF120.00000381469727
aF120.00000381469727
asS'Sbase'
p22
F100.0
sS'A1'
p23
(dp24
S'S011'
p25
(dp26
S'Va'
p27
(lp28
F-0.67385661602020264
aF-0.67385661602020264
aF-0.67385661602020264
aF-0.67385661602020264
aF-0.67385661602020264
aF-0.67385661602020264
aF-0.67385661602020264
aF-0.67385661602020264
aF-0.67385661602020264
aF-0.67385661602020264
aF-0.67385661602020264
aF-0.67385661602020264
aF-0.67385661602020264
aF-0.67385661602020264
aF-0.67385661602020264
aF-0.67385661602020264
aF-0.67385661602020264
aF-0.67385661602020264
aF-0.67385661602020264
aF-0.67385661602020264
aF-0.67385661602020264
asS'Vm'
p29
(lp30
F1.0
aF1.0
aF1.0
aF1.0
aF1.0
aF1.0
aF1.0
aF1.0
aF1.0
aF1.0
aF1.0
aF1.0
aF1.0
aF1.0
aF1.0
aF1.0
aF1.0
aF1.0
aF1.0
aF1.0
aF1.0
asS'S0'
p31
(dp32
S'Hpu'
p33
F3.7000000000000002
sS'Pe'
p34
(lp35
F50.000007629394531
aF50.000007629394531
aF60.000003814697266
aF60.000003814697266
aF60.000003814697266
aF60.000003814697266
aF60.000003814697266
aF60.000003814697266
aF60.000003814697266
aF60.000003814697266
aF60.000003814697266
aF60.000003814697266
aF60.000003814697266
aF60.000003814697266
aF60.000003814697266
aF60.000003814697266
aF60.000003814697266
aF60.000003814697266
aF60.000003814697266
aF60.000003814697266
aF60.000003814697266
asS'Q'
p36
(lp37
F2.7583422660827637
aF2.7583422660827637
aF3.9773690700531006
aF3.9774239063262939
aF3.9774239063262939
aF3.9774239063262939
aF3.9774239063262939
aF3.9774239063262939
aF3.9774239063262939
aF3.9774239063262939
aF3.9774239063262939
aF3.9774239063262939
aF3.9774239063262939
aF3.9774239063262939
aF3.9774239063262939
aF3.9774239063262939
aF3.9774239063262939
aF3.9774239063262939
aF3.9774239063262939
aF3.9774239063262939
aF3.9774239063262939
asS'Pm'
p38
(lp39
F50.000007629394531
aF50.000007629394531
aF50.000007629394531
aF50.000007629394531
aF50.000007629394531
aF50.000007629394531
aF50.000007629394531
aF50.000007629394531
aF50.000007629394531
aF50.000007629394531
aF50.000007629394531
aF50.000007629394531
aF50.000007629394531
aF50.000007629394531
aF50.000007629394531
aF50.000007629394531
aF50.000007629394531
aF50.000007629394531
aF50.000007629394531
aF50.000007629394531
aF50.000007629394531
asS'St'
p40
(lp41
I1
aI1
aI1
aI1
aI1
aI1
aI1
aI1
aI1
aI1
aI1
aI1
aI1
aI1
aI1
aI1
aI1
aI1
aI1
aI1
aI1
asS'Pe_error'
p42
(lp43
F0.0
aF0.0
aF3.814697265625e-06
aF1.9073486328125e-06
aF1.9073486328125e-06
aF1.9073486328125e-06
aF1.9073486328125e-06
aF1.9073486328125e-06
aF1.9073486328125e-06
aF1.9073486328125e-06
aF1.9073486328125e-06
aF1.9073486328125e-06
aF1.9073486328125e-06
aF1.9073486328125e-06
aF1.9073486328125e-06
aF1.9073486328125e-06
aF1.9073486328125e-06
aF1.9073486328125e-06
aF1.9073486328125e-06
aF1.9073486328125e-06
aF1.9073486328125e-06
asS'Pe_calc'
p44
(lp45
F50.000007629394531
aF50.000007629394531
aF60.000007629394531
aF60.000005722045898
aF60.000005722045898
aF60.000005722045898
aF60.000005722045898
aF60.000005722045898
aF60.000005722045898
aF60.000005722045898
aF60.000005722045898
aF60.000005722045898
aF60.000005722045898
aF60.000005722045898
aF60.000005722045898
aF60.000005722045898
aF60.000005722045898
aF60.000005722045898
aF60.000005722045898
aF60.000005722045898
aF60.000005722045898
asS'Slack'
p46
I1
sS'Mbase'
p47
F100.0
ssS'BusNum'
p48
I11
sS'BusName'
p49
S'11'
p50
ssS'Nload'
p51
I2
sS'Ngen'
p52
I2
sS'AreaNum'
p53
I1
sS'x002'
p54
(dp55
g29
(lp56
F0.99849432706832886
aF0.99849432706832886
aF0.99782818555831909
aF0.99782812595367432
aF0.99782812595367432
aF0.99782812595367432
aF0.99782812595367432
aF0.99782812595367432
aF0.99782812595367432
aF0.99782812595367432
aF0.99782812595367432
aF0.99782812595367432
aF0.99782812595367432
aF0.99782812595367432
aF0.99782812595367432
aF0.99782812595367432
aF0.99782812595367432
aF0.99782812595367432
aF0.99782812595367432
aF0.99782812595367432
aF0.99782812595367432
asg49
S'2'
p57
sg48
I2
sg27
(lp58
F-0.72395294904708862
aF-0.72395294904708862
aF-0.73402351140975952
aF-0.73402351140975952
aF-0.73402351140975952
aF-0.73402351140975952
aF-0.73402351140975952
aF-0.73402351140975952
aF-0.73402351140975952
aF-0.73402351140975952
aF-0.73402351140975952
aF-0.73402351140975952
aF-0.73402351140975952
aF-0.73402351140975952
aF-0.73402351140975952
aF-0.73402351140975952
aF-0.73402351140975952
aF-0.73402351140975952
aF-0.73402351140975952
aF-0.73402351140975952
aF-0.73402351140975952
assS'L003'
p59
(dp60
S'L0'
p61
(dp62
S'P'
p63
(lp64
F100.0
aF100.0
aF100.0
aF100.0
aF100.0
aF100.0
aF100.0
aF100.0
aF100.0
aF100.0
aF100.0
aF100.0
aF100.0
aF100.0
aF100.0
aF100.0
aF100.0
aF100.0
aF100.0
aF100.0
aF100.0
asS'St'
p65
(lp66
I1
aI1
aI1
aI1
aI1
aI1
aI1
aI1
aI1
aI1
aI1
aI1
aI1
aI1
aI1
aI1
aI1
aI1
aI1
aI1
aI1
asS'Q'
p67
(lp68
F0.0
aF0.0
aF0.0
aF0.0
aF0.0
aF0.0
aF0.0
aF0.0
aF0.0
aF0.0
aF0.0
aF0.0
aF0.0
aF0.0
aF0.0
aF0.0
aF0.0
aF0.0
aF0.0
aF0.0
aF0.0
assg27
(lp69
F-0.72896814346313477
aF-0.72896814346313477
aF-0.74004977941513062
aF-0.74004977941513062
aF-0.74004977941513062
aF-0.74004977941513062
aF-0.74004977941513062
aF-0.74004977941513062
aF-0.74004977941513062
aF-0.74004977941513062
aF-0.74004977941513062
aF-0.74004977941513062
aF-0.74004977941513062
aF-0.74004977941513062
aF-0.74004977941513062
aF-0.74004977941513062
aF-0.74004977941513062
aF-0.74004977941513062
aF-0.74004977941513062
aF-0.74004977941513062
aF-0.74004977941513062
asg29
(lp70
F0.99848175048828125
aF0.99848175048828125
aF0.9978100061416626
aF0.9978100061416626
aF0.9978100061416626
aF0.9978100061416626
aF0.9978100061416626
aF0.9978100061416626
aF0.9978100061416626
aF0.9978100061416626
aF0.9978100061416626
aF0.9978100061416626
aF0.9978100061416626
aF0.9978100061416626
aF0.9978100061416626
aF0.9978100061416626
aF0.9978100061416626
aF0.9978100061416626
aF0.9978100061416626
aF0.9978100061416626
aF0.9978100061416626
asS'L1'
p71
(dp72
g63
(lp73
F20.0
aF20.0
aF20.0
aF20.0
aF20.0
aF20.0
aF20.0
aF20.0
aF20.0
aF20.0
aF20.0
aF20.0
aF20.0
aF20.0
aF20.0
aF20.0
aF20.0
aF20.0
aF20.0
aF20.0
aF20.0
asg65
(lp74
I0
aI0
aI1
aI1
aI1
aI1
aI1
aI1
aI1
aI1
aI1
aI1
aI1
aI1
aI1
aI1
aI1
aI1
aI1
aI1
aI1
asg67
(lp75
F0.0
aF0.0
aF0.0
aF0.0
aF0.0
aF0.0
aF0.0
aF0.0
aF0.0
aF0.0
aF0.0
aF0.0
aF0.0
aF0.0
aF0.0
aF0.0
aF0.0
aF0.0
aF0.0
aF0.0
aF0.0
assg48
I3
sg49
S'3'
p76
ssS'G021'
p77
(dp78
g27
(lp79
F-0.67385661602020264
aF-0.67385661602020264
aF-0.67385661602020264
aF-0.67385661602020264
aF-0.67385661602020264
aF-0.67385661602020264
aF-0.67385661602020264
aF-0.67385661602020264
aF-0.67385661602020264
aF-0.67385661602020264
aF-0.67385661602020264
aF-0.67385661602020264
aF-0.67385661602020264
aF-0.67385661602020264
aF-0.67385661602020264
aF-0.67385661602020264
aF-0.67385661602020264
aF-0.67385661602020264
aF-0.67385661602020264
aF-0.67385661602020264
aF-0.67385661602020264
asg29
(lp80
F1.0
aF1.0
aF1.0
aF1.0
aF1.0
aF1.0
aF1.0
aF1.0
aF1.0
aF1.0
aF1.0
aF1.0
aF1.0
aF1.0
aF1.0
aF1.0
aF1.0
aF1.0
aF1.0
aF1.0
aF1.0
asg48
I21
sS'G0'
p81
(dp82
S'Pe'
p83
(lp84
F50.0
aF50.0
aF60.0
aF60.0
aF60.0
aF60.0
aF60.0
aF60.0
aF60.0
aF60.0
aF60.0
aF60.0
aF60.0
aF60.0
aF60.0
aF60.0
aF60.0
aF60.0
aF60.0
aF60.0
aF60.0
asS'Hpu'
p85
F3.7000000000000002
sS'Slack'
p86
I0
sS'Mbase'
p87
F100.0
sS'St'
p88
(lp89
I1
aI1
aI1
aI1
aI1
aI1
aI1
aI1
aI1
aI1
aI1
aI1
aI1
aI1
aI1
aI1
aI1
aI1
aI1
aI1
aI1
asS'Pm'
p90
(lp91
F50.0
aF50.0
aF50.0
aF50.0
aF50.0
aF50.0
aF50.0
aF50.0
aF50.0
aF50.0
aF50.0
aF50.0
aF50.0
aF50.0
aF50.0
aF50.0
aF50.0
aF50.0
aF50.0
aF50.0
aF50.0
asS'Q'
p92
(lp93
F2.7583422660827637
aF2.7583422660827637
aF3.9773690700531006
aF3.9774239063262939
aF3.9774239063262939
aF3.9774239063262939
aF3.9774239063262939
aF3.9774239063262939
aF3.9774239063262939
aF3.9774239063262939
aF3.9774239063262939
aF3.9774239063262939
aF3.9774239063262939
aF3.9774239063262939
aF3.9774239063262939
aF3.9774239063262939
aF3.9774239063262939
aF3.9774239063262939
aF3.9774239063262939
aF3.9774239063262939
aF3.9774239063262939
assg49
S'21'
p94
ssS'x001'
p95
(dp96
g29
(lp97
F0.99849432706832886
aF0.99849432706832886
aF0.99782818555831909
aF0.99782812595367432
aF0.99782812595367432
aF0.99782812595367432
aF0.99782812595367432
aF0.99782812595367432
aF0.99782812595367432
aF0.99782812595367432
aF0.99782812595367432
aF0.99782812595367432
aF0.99782812595367432
aF0.99782812595367432
aF0.99782812595367432
aF0.99782812595367432
aF0.99782812595367432
aF0.99782812595367432
aF0.99782812595367432
aF0.99782812595367432
aF0.99782812595367432
asg49
S'1'
p98
sg48
I1
sg27
(lp99
F-0.72395294904708862
aF-0.72395294904708862
aF-0.73402351140975952
aF-0.73402351140975952
aF-0.73402351140975952
aF-0.73402351140975952
aF-0.73402351140975952
aF-0.73402351140975952
aF-0.73402351140975952
aF-0.73402351140975952
aF-0.73402351140975952
aF-0.73402351140975952
aF-0.73402351140975952
aF-0.73402351140975952
aF-0.73402351140975952
aF-0.73402351140975952
aF-0.73402351140975952
aF-0.73402351140975952
aF-0.73402351140975952
aF-0.73402351140975952
aF-0.73402351140975952
asssS'N'
p100
I21
sS'meta'
p101
(dp102
S'created'
p103
S'2019/02/2 at 0:18:43'
p104
sS'fileName'
p105
S'noGovStepDABw'
p106
sS'notes'
p107
S'\n20 MW load step at t=2\nsim time = 20 seconds, \nchanged slackTol to 0.25. Timestep = 1\n'
p108
sS'integrationMethod'
p109
S'AB'
p110
sS'freqEffects'
p111
I1
sS'locations'
p112
(dp113
S'dydPath'
p114
(lp115
S'C:\\LTD\\pslf_systems\\eele554\\ee554.exc.dyd'
p116
asS'pslfPath'
p117
S'C:\\Program Files (x86)\\GE PSLF'
p118
sS'fullMiddlewareFilePath'
p119
S'C:\\Program Files (x86)\\GE PSLF\\PslfMiddleware'
p120
sS'savPath'
p121
S'C:\\LTD\\pslf_systems\\eele554\\ee554.sav'
p122
sss.
